Component: ARM Compiler 5.06 update 3 (build 300) Tool: armlink [4d35c9]

==============================================================================

Section Cross References

    main.o(.text) refers to aud_driver.o(.text) for AUD_RegWrite
    main.o(.text) refers to CSpotterSDKApi.o(i.CSpotter_AddSample) for CSpotter_AddSample
    main.o(.text) refers to CSpotterSDKApi.o(i.CSpotter_GetResult) for CSpotter_GetResult
    main.o(.text) refers to CSpotterSDKApi.o(i.CSpotter_SetRejectionLevel) for CSpotter_SetRejectionLevel
    main.o(.text) refers to gpio.o(.text) for GPIO_GetPin
    main.o(.text) refers to fun_main.o(.text) for setting_pwm
    main.o(.text) refers to motor.o(.text) for is_start_motor
    main.o(.text) refers to snx_audio_agc.o(.text) for SNX_AGC_Process
    main.o(.text) refers to main.o(.data) for last_gainidx
    main.o(.text) refers to main.o(.bss) for AEC_OutBuf
    main.o(.text) refers to codec.o(.text) for ADC_Get_Rx_Index
    main.o(.text) refers to spifc.o(.text) for SPIFC_ReadWithDma
    main.o(.text) refers to CSpotterSDKApi.o(i.CSpotter_GetMemoryUsage_Multi) for CSpotter_GetMemoryUsage_Multi
    main.o(.text) refers to CSpotterSDKApi.o(i.CSpotter_Init_Multi) for CSpotter_Init_Multi
    main.o(.text) refers to CSpotterSDKApi.o(i.CSpotter_Reset) for CSpotter_Reset
    main.o(.text) refers to CSpotterSDKApi.o(i.CSpotter_GetNumWord) for CSpotter_GetNumWord
    main.o(.text) refers to h1_alloc.o(.text) for malloc
    main.o(.text) refers to audio.o(.text) for External_Audio_Codec_Init
    main.o(.text) refers to i2s4.o(.text) for I2S4_Init
    main.o(.text) refers to rd_wr_flash.o(.ARM.__at_0x60030000) for CYB_CMD1_INFLASH
    main.o(.text) refers to snx_audio_agc.o(.data) for g_AGC_bufsize
    main.o(.text) refers to log_util.o(.text) for LOG_Driver_Init
    snx_audio_agc.o(.text) refers to snx_audio_agc.o(.data) for update_frmcnt
    snx_audio_agc.o(.text) refers to dflt_clz.o(x$fpl$dflt) for __aeabi_i2d
    snx_audio_agc.o(.text) refers to dmul.o(x$fpl$dmul) for __aeabi_dmul
    snx_audio_agc.o(.text) refers to dleqf.o(x$fpl$dleqf) for __aeabi_cdcmple
    snx_audio_agc.o(.text) refers to fflt_clz.o(x$fpl$fflt) for __aeabi_i2f
    snx_audio_agc.o(.text) refers to f2d.o(x$fpl$f2d) for __aeabi_f2d
    snx_audio_agc.o(.text) refers to dfix.o(x$fpl$dfix) for __aeabi_d2iz
    snx_audio_agc.o(.text) refers to ddiv.o(x$fpl$ddiv) for __aeabi_ddiv
    dataflashapi.o(.text) refers to rt_memcpy_v6.o(.text) for __aeabi_memcpy
    dataflashapi.o(.text) refers to aeabi_memset.o(.text) for __aeabi_memset
    key.o(.text) refers to gpio.o(.text) for GPIO_SetPin
    key.o(.text) refers to key.o(.data) for curKey
    key.o(.text) refers to main.o(.data) for is_5ms_Flag
    led.o(.text) refers to gpio.o(.text) for GPIO_SetPin
    led.o(.text) refers to led.o(.data) for led_white_mode
    led.o(.text) refers to fun_main.o(.data) for batlevel
    motor.o(.text) refers to gpio.o(.text) for GPIO_Irq_GetPinIrq
    motor.o(.text) refers to timer_pwm.o(.text) for TimerPwm_Reset
    motor.o(.text) refers to motor.o(.data) for Motor_done_cnt
    motor.o(.text) refers to motor.o(.bss) for init_info
    fun_main.o(.text) refers to motor.o(.text) for get_motor_level
    fun_main.o(.text) refers to led.o(.text) for Init_LED
    fun_main.o(.text) refers to key.o(.text) for KeyInit
    fun_main.o(.text) refers to sar_adc.o(.text) for SAR_ADC_init
    fun_main.o(.text) refers to fun_main.o(.data) for dpdtime
    fun_main.o(.text) refers to led.o(.data) for led_display_time
    fun_main.o(.text) refers to motor.o(.data) for isStartMotor
    fun_main.o(.text) refers to fun_main.o(.bss) for adc
    fun_main.o(.text) refers to main.o(.data) for is_5ms_Flag
    bsp.o(.text) refers to rt_memcpy_w.o(.text) for __aeabi_memcpy4
    bsp.o(.text) refers to bsp.o(.constdata) for init_clk_table
    bsp.o(.constdata) refers to bsp.o(.text) for _init_clock_setting
    startup.o(STACK) refers (Special) to heapauxi.o(.text) for __use_two_region_memory
    startup.o(HEAP) refers (Special) to heapauxi.o(.text) for __use_two_region_memory
    startup.o(RESET) refers (Special) to heapauxi.o(.text) for __use_two_region_memory
    startup.o(RESET) refers to startup.o(STACK) for __initial_sp
    startup.o(RESET) refers to startup.o(.text) for Reset_Handler
    startup.o(RESET) refers to bsp.o(.text) for HardFault_Handler
    startup.o(RESET) refers to main.o(.text) for SysTick_Handler
    startup.o(RESET) refers to motor.o(.text) for GPIO3_IRQHandler
    startup.o(RESET) refers to uart.o(.text) for UART0_IRQHandler
    startup.o(.text) refers (Special) to heapauxi.o(.text) for __use_two_region_memory
    startup.o(.text) refers to bsp.o(.text) for System_Init
    startup.o(.text) refers to __main.o(!!!main) for __main
    startup.o(.text) refers to startup.o(HEAP) for Heap_Mem
    startup.o(.text) refers to startup.o(STACK) for Stack_Mem
    audio.o(.text) refers to i2s4.o(.text) for I2S4_Init
    audio.o(.text) refers to aud_driver.o(.text) for AUD_Driver_Init
    i2c_software_master.o(.text) refers to i2c_software_master.o(.data) for sn_i2c_sw_ch
    aud_driver.o(.text) refers to i2c.o(.text) for I2C_Master_Send
    aud_driver.o(.text) refers to i2c_software_master.o(.text) for I2C_SoftWare_Master_Write
    aud_driver.o(.text) refers to rt_memclr.o(.text) for __aeabi_memclr
    aud_driver.o(.text) refers to aud_driver.o(.data) for aud_driver_mode
    aud_driver.o(.text) refers to aud_driver.o(.bss) for AUD_Reg
    aud_driver.o(.text) refers to log_util.o(.text) for printf_uart
    aud_driver.o(.text) refers to aud_driver.o(.conststring) for .conststring
    i2s4.o(.text) refers to i2s4.o(.data) for temp_reg
    uart.o(.text) refers to uart.o(.data) for g_recv_irq_byte
    uart.o(.text) refers to uart.o(.bss) for rx_buffer
    uart.o(.text) refers to uart.o(.constdata) for g_clk_table
    CSpotterSDKApi.o(i.CSpotter_AddSample) refers to BsrGo.o(i.NINJA_API_13) for NINJA_API_13
    CSpotterSDKApi.o(i.CSpotter_AddSample) refers to BsrGo.o(i.NINJA_API_15) for NINJA_API_15
    CSpotterSDKApi.o(i.CSpotter_AddSample) refers to BsrGo.o(i.NINJA_API_23) for NINJA_API_23
    CSpotterSDKApi.o(i.CSpotter_GetMaxActiveState) refers to BsrGo.o(i.NINJA_API_80) for NINJA_API_80
    CSpotterSDKApi.o(i.CSpotter_GetMemoryUsage_Multi) refers to CSpotterSDKApi.o(i.CSpotter_GetMemoryUsage_MultiWithSpeakerAndExtRejModel) for CSpotter_GetMemoryUsage_MultiWithSpeakerAndExtRejModel
    CSpotterSDKApi.o(i.CSpotter_GetMemoryUsage_MultiWithExtRejModel) refers to CSpotterSDKApi.o(i.CSpotter_GetMemoryUsage_MultiWithSpeakerAndExtRejModel) for CSpotter_GetMemoryUsage_MultiWithSpeakerAndExtRejModel
    CSpotterSDKApi.o(i.CSpotter_GetMemoryUsage_MultiWithSpeaker) refers to CSpotterSDKApi.o(i.CSpotter_GetMemoryUsage_MultiWithSpeakerAndExtRejModel) for CSpotter_GetMemoryUsage_MultiWithSpeakerAndExtRejModel
    CSpotterSDKApi.o(i.CSpotter_GetMemoryUsage_MultiWithSpeakerAndExtRejModel) refers to BsrGo.o(i.NINJA_API_1) for NINJA_API_1
    CSpotterSDKApi.o(i.CSpotter_GetMemoryUsage_MultiWithSpeakerAndExtRejModel) refers to BsrGo.o(i.NINJA_API_75) for NINJA_API_75
    CSpotterSDKApi.o(i.CSpotter_GetMemoryUsage_Sep) refers to CSpotterSDKApi.o(i.CSpotter_GetMemoryUsage_MultiWithSpeakerAndExtRejModel) for CSpotter_GetMemoryUsage_MultiWithSpeakerAndExtRejModel
    CSpotterSDKApi.o(i.CSpotter_GetMemoryUsage_SepWithExtRejModel) refers to CSpotterSDKApi.o(i.CSpotter_GetMemoryUsage_MultiWithSpeakerAndExtRejModel) for CSpotter_GetMemoryUsage_MultiWithSpeakerAndExtRejModel
    CSpotterSDKApi.o(i.CSpotter_GetMemoryUsage_SepWithSpeaker) refers to CSpotterSDKApi.o(i.CSpotter_GetMemoryUsage_MultiWithSpeakerAndExtRejModel) for CSpotter_GetMemoryUsage_MultiWithSpeakerAndExtRejModel
    CSpotterSDKApi.o(i.CSpotter_GetMemoryUsage_SepWithSpeakerAndExtRejModel) refers to CSpotterSDKApi.o(i.CSpotter_GetMemoryUsage_MultiWithSpeakerAndExtRejModel) for CSpotter_GetMemoryUsage_MultiWithSpeakerAndExtRejModel
    CSpotterSDKApi.o(i.CSpotter_GetModelCmdReward) refers to BsrAli.o(i.BsrJosh) for BsrJosh
    CSpotterSDKApi.o(i.CSpotter_GetModelCmdReward) refers to BsrGo.o(i.NINJA_API_31) for NINJA_API_31
    CSpotterSDKApi.o(i.CSpotter_GetModelCmdReward) refers to BsrGo.o(i.NINJA_API_41) for NINJA_API_41
    CSpotterSDKApi.o(i.CSpotter_GetModelCmdReward) refers to CSpotterSDKApi.o(i.CSpotter_GetNumWord) for i.CSpotter_GetNumWord
    CSpotterSDKApi.o(i.CSpotter_GetNBestScore) refers to BsrGo.o(i.NINJA_API_62) for NINJA_API_62
    CSpotterSDKApi.o(i.CSpotter_GetNBestScore) refers to BsrGo.o(i.NINJA_API_29) for NINJA_API_29
    CSpotterSDKApi.o(i.CSpotter_GetNumWord) refers to BsrAli.o(i.BsrJosh) for BsrJosh
    CSpotterSDKApi.o(i.CSpotter_GetNumWord) refers to BsrGo.o(i.NINJA_API_31) for NINJA_API_31
    CSpotterSDKApi.o(i.CSpotter_GetResult) refers to BsrGo.o(i.NINJA_API_47) for NINJA_API_47
    CSpotterSDKApi.o(i.CSpotter_GetResult) refers to BsrGo.o(i.NINJA_API_55) for NINJA_API_55
    CSpotterSDKApi.o(i.CSpotter_GetResultCmdModel) refers to BsrGo.o(i.NINJA_API_78) for NINJA_API_78
    CSpotterSDKApi.o(i.CSpotter_GetResultCmdModel) refers to BsrGo.o(i.NINJA_API_79) for NINJA_API_79
    CSpotterSDKApi.o(i.CSpotter_GetResultCmdModel) refers to BsrGo.o(i.NINJA_API_31) for NINJA_API_31
    CSpotterSDKApi.o(i.CSpotter_GetResultCmdModel) refers to CSpotterSDTrainApi.o(i.CSpotterSD_GetTagID) for CSpotterSD_GetTagID
    CSpotterSDKApi.o(i.CSpotter_GetResultEPD) refers to BsrGo.o(i.NINJA_API_43) for NINJA_API_43
    CSpotterSDKApi.o(i.CSpotter_GetResultMapID) refers to BsrGo.o(i.NINJA_API_78) for NINJA_API_78
    CSpotterSDKApi.o(i.CSpotter_GetResultMapID) refers to BsrGo.o(i.NINJA_API_79) for NINJA_API_79
    CSpotterSDKApi.o(i.CSpotter_GetResultMapID) refers to BsrGo.o(i.NINJA_API_31) for NINJA_API_31
    CSpotterSDKApi.o(i.CSpotter_GetResultScore) refers to BsrGo.o(i.NINJA_API_28) for NINJA_API_28
    CSpotterSDKApi.o(i.CSpotter_GetResultScore) refers to BsrGo.o(i.NINJA_API_29) for NINJA_API_29
    CSpotterSDKApi.o(i.CSpotter_GetStateSize) refers to BsrGo.o(i.NINJA_API_1) for NINJA_API_1
    CSpotterSDKApi.o(i.CSpotter_Init_Multi) refers to CSpotterSDKApi.o(i.CSpotter_Init_MultiWithExtRejModel) for CSpotter_Init_MultiWithExtRejModel
    CSpotterSDKApi.o(i.CSpotter_Init_MultiWithExtRejModel) refers to BsrGo.o(i.NINJA_API_1) for NINJA_API_1
    CSpotterSDKApi.o(i.CSpotter_Init_MultiWithExtRejModel) refers to CSpotterSDKApi.o(i.CSpotter_GetMemoryUsage_MultiWithSpeakerAndExtRejModel) for CSpotter_GetMemoryUsage_MultiWithSpeakerAndExtRejModel
    CSpotterSDKApi.o(i.CSpotter_Init_MultiWithExtRejModel) refers to BsrAli.o(i.BsrJohn) for BsrJohn
    CSpotterSDKApi.o(i.CSpotter_Init_MultiWithExtRejModel) refers to BsrGo.o(i.NINJA_API_73) for NINJA_API_73
    CSpotterSDKApi.o(i.CSpotter_Init_MultiWithExtRejModel) refers to BsrGo.o(i.NINJA_API_47) for NINJA_API_47
    CSpotterSDKApi.o(i.CSpotter_Init_MultiWithExtRejModel) refers to BsrGo.o(i.NINJA_API_55) for NINJA_API_55
    CSpotterSDKApi.o(i.CSpotter_Init_MultiWithExtRejModel) refers to BsrGo.o(i.NINJA_API_48) for NINJA_API_48
    CSpotterSDKApi.o(i.CSpotter_Init_MultiWithExtRejModel) refers to BsrGo.o(i.NINJA_API_56) for NINJA_API_56
    CSpotterSDKApi.o(i.CSpotter_Init_MultiWithExtRejModel) refers to BsrGo.o(i.NINJA_API_19) for NINJA_API_19
    CSpotterSDKApi.o(i.CSpotter_Init_MultiWithExtRejModel) refers to BsrGo.o(i.NINJA_API_26) for NINJA_API_26
    CSpotterSDKApi.o(i.CSpotter_Init_MultiWithExtRejModel) refers to BsrGo.o(i.NINJA_API_15) for NINJA_API_15
    CSpotterSDKApi.o(i.CSpotter_Init_MultiWithExtRejModel) refers to BsrGo.o(i.NINJA_API_2) for NINJA_API_2
    CSpotterSDKApi.o(i.CSpotter_Init_Sep) refers to CSpotterSDKApi.o(i.CSpotter_Init_MultiWithExtRejModel) for CSpotter_Init_MultiWithExtRejModel
    CSpotterSDKApi.o(i.CSpotter_Init_SepWithExtRejModel) refers to CSpotterSDKApi.o(i.CSpotter_Init_MultiWithExtRejModel) for CSpotter_Init_MultiWithExtRejModel
    CSpotterSDKApi.o(i.CSpotter_IsActiveCmd) refers to BsrAli.o(i.BsrJosh) for BsrJosh
    CSpotterSDKApi.o(i.CSpotter_IsActiveCmd) refers to BsrGo.o(i.NINJA_API_50) for NINJA_API_50
    CSpotterSDKApi.o(i.CSpotter_IsVoiceActive) refers to BsrGo.o(i.NINJA_API_27) for NINJA_API_27
    CSpotterSDKApi.o(i.CSpotter_Release) refers to BsrGo.o(i.NINJA_API_47) for NINJA_API_47
    CSpotterSDKApi.o(i.CSpotter_Release) refers to BsrGo.o(i.NINJA_API_55) for NINJA_API_55
    CSpotterSDKApi.o(i.CSpotter_Release) refers to BsrGo.o(i.NINJA_API_2) for NINJA_API_2
    CSpotterSDKApi.o(i.CSpotter_Reset) refers to BsrGo.o(i.NINJA_API_3) for NINJA_API_3
    CSpotterSDKApi.o(i.CSpotter_SetCmdResponseOffset) refers to BsrGo.o(i.NINJA_API_18) for NINJA_API_18
    CSpotterSDKApi.o(i.CSpotter_SetCmdResponseReward) refers to BsrGo.o(i.NINJA_API_18) for NINJA_API_18
    CSpotterSDKApi.o(i.CSpotter_SetCmdReward) refers to BsrGo.o(i.NINJA_API_17) for NINJA_API_17
    CSpotterSDKApi.o(i.CSpotter_SetCmdRewardOffset) refers to BsrGo.o(i.NINJA_API_17) for NINJA_API_17
    CSpotterSDKApi.o(i.CSpotter_SetEnableNBest) refers to BsrGo.o(i.NINJA_API_66) for NINJA_API_66
    CSpotterSDKApi.o(i.CSpotter_SetEnableRejectedResult) refers to BsrGo.o(i.NINJA_API_22) for NINJA_API_22
    CSpotterSDKApi.o(i.CSpotter_SetEndStateRange) refers to BsrGo.o(i.NINJA_API_20) for NINJA_API_20
    CSpotterSDKApi.o(i.CSpotter_SetFreqWarpFactor) refers to BsrGo.o(i.NINJA_API_46) for NINJA_API_46
    CSpotterSDKApi.o(i.CSpotter_SetMinEnergyThreshd) refers to BsrGo.o(i.NINJA_API_49) for NINJA_API_49
    CSpotterSDKApi.o(i.CSpotter_SetOLGarbThreshd) refers to BsrGo.o(i.NINJA_API_71) for NINJA_API_71
    CSpotterSDKApi.o(i.CSpotter_SetPartialRejectLevel) refers to BsrGo.o(i.NINJA_API_67) for NINJA_API_67
    CSpotterSDKApi.o(i.CSpotter_SetPartialRejectLevel) refers to BsrGo.o(i.NINJA_API_68) for NINJA_API_68
    CSpotterSDKApi.o(i.CSpotter_SetPartialRejectStateNum) refers to BsrGo.o(i.NINJA_API_69) for NINJA_API_69
    CSpotterSDKApi.o(i.CSpotter_SetRejectedResultEnergyThreshd) refers to BsrGo.o(i.NINJA_API_25) for NINJA_API_25
    CSpotterSDKApi.o(i.CSpotter_SetRejectionLevel) refers to BsrGo.o(i.NINJA_API_15) for NINJA_API_15
    CSpotterSDKApi.o(i.CSpotter_SetResponseTime) refers to BsrGo.o(i.NINJA_API_16) for NINJA_API_16
    CSpotterSDKApi.o(i.CSpotter_SetResultMapID_Multi) refers to BsrGo.o(i.NINJA_API_78) for NINJA_API_78
    CSpotterSDKApi.o(i.CSpotter_SetResultMapID_Sep) refers to BsrGo.o(i.NINJA_API_78) for NINJA_API_78
    CSpotterSDKApi.o(i.CSpotter_VerInfo) refers to CSpotterSDKApi.o(.data) for .data
    CSpotterSDKApi.o(.data) refers to CSpotterSDKApi.o(.conststring) for .conststring
    codec.o(.text) refers to i2s.o(.text) for I2S_Set_MONO_STEREO
    gpio.o(.text) refers to gpio.o(.bss) for g_gpio_base_offset
    i2c.o(.text) refers to i2c.o(.data) for g_timeout_count
    spifc.o(.text) refers to idma.o(.text) for IDMA_Start
    spifc.o(.text) refers to rt_memclr_w.o(.text) for __aeabi_memclr4
    log_util.o(.text) refers to uart.o(.text) for UART_Init
    log_util.o(.text) refers to vsnprintf.o(.text) for vsnprintf
    log_util.o(.text) refers to log_util.o(.data) for gLog_flags
    log_util.o(.text) refers to log_util.o(.bss) for g_buffer
    BsrGo.o(i.NINJA_API_10) refers to BsrDon.o(i.BsrBill) for BsrBill
    BsrGo.o(i.NINJA_API_11) refers to BsrJim.o(i.BsrEva) for BsrEva
    BsrGo.o(i.NINJA_API_11) refers to BsrJim.o(i.BsrAsa) for BsrAsa
    BsrGo.o(i.NINJA_API_11) refers to BsrJim.o(i.BsrEli) for BsrEli
    BsrGo.o(i.NINJA_API_11) refers to BsrBen.o(i.BsrBrad) for BsrBrad
    BsrGo.o(i.NINJA_API_11) refers to BsrJim.o(i.BsrAri) for BsrAri
    BsrGo.o(i.NINJA_API_12) refers to BsrDon.o(i.BsrBeau) for BsrBeau
    BsrGo.o(i.NINJA_API_12) refers to BsrGo.o(i.NINJA_API_11) for NINJA_API_11
    BsrGo.o(i.NINJA_API_13) refers to BsrAli.o(i.BsrJose) for BsrJose
    BsrGo.o(i.NINJA_API_13) refers to BsrDon.o(i.BsrAmos) for BsrAmos
    BsrGo.o(i.NINJA_API_13) refers to BsrKai.o(i.BsrRon) for BsrRon
    BsrGo.o(i.NINJA_API_13) refers to BsrKai.o(i.BsrRey) for BsrRey
    BsrGo.o(i.NINJA_API_13) refers to BsrKai.o(i.BsrTop) for BsrTop
    BsrGo.o(i.NINJA_API_13) refers to BsrGo.o(i.NINJA_API_11) for NINJA_API_11
    BsrGo.o(i.NINJA_API_14) refers to BsrAli.o(i.BsrJose) for BsrJose
    BsrGo.o(i.NINJA_API_14) refers to BsrDon.o(i.BsrAmos) for BsrAmos
    BsrGo.o(i.NINJA_API_14) refers to BsrKai.o(i.BsrRon) for BsrRon
    BsrGo.o(i.NINJA_API_14) refers to BsrKai.o(i.BsrRey) for BsrRey
    BsrGo.o(i.NINJA_API_14) refers to BsrKai.o(i.BsrTop) for BsrTop
    BsrGo.o(i.NINJA_API_15) refers to BsrJim.o(i.BsrDan) for BsrDan
    BsrGo.o(i.NINJA_API_16) refers to BsrJim.o(i.BsrGuy) for BsrGuy
    BsrGo.o(i.NINJA_API_17) refers to BsrJim.o(i.BsrIan) for BsrIan
    BsrGo.o(i.NINJA_API_18) refers to BsrJim.o(i.BsrIvy) for BsrIvy
    BsrGo.o(i.NINJA_API_19) refers to BsrJim.o(i.BsrJan) for BsrJan
    BsrGo.o(i.NINJA_API_2) refers to BsrJim.o(i.BsrAna) for BsrAna
    BsrGo.o(i.NINJA_API_2) refers to BsrKai.o(i.BsrNia) for BsrNia
    BsrGo.o(i.NINJA_API_2) refers to BsrDon.o(i.BsrAmir) for BsrAmir
    BsrGo.o(i.NINJA_API_20) refers to BsrJim.o(i.BsrJoe) for BsrJoe
    BsrGo.o(i.NINJA_API_23) refers to BsrJim.o(i.BsrEli) for BsrEli
    BsrGo.o(i.NINJA_API_24) refers to BsrJim.o(i.BsrJoy) for BsrJoy
    BsrGo.o(i.NINJA_API_26) refers to BsrDon.o(i.BsrAyla) for BsrAyla
    BsrGo.o(i.NINJA_API_27) refers to BsrJim.o(i.BsrKai) for BsrKai
    BsrGo.o(i.NINJA_API_28) refers to BsrJim.o(i.BsrEli) for BsrEli
    BsrGo.o(i.NINJA_API_29) refers to BsrJim.o(i.BsrKia) for BsrKia
    BsrGo.o(i.NINJA_API_3) refers to BsrJim.o(i.BsrAri) for BsrAri
    BsrGo.o(i.NINJA_API_30) refers to BsrGo.o(.data) for .data
    BsrGo.o(i.NINJA_API_31) refers to BsrJim.o(i.BsrMichelle) for BsrMichelle
    BsrGo.o(i.NINJA_API_32) refers to BsrJim.o(i.BsrLea) for BsrLea
    BsrGo.o(i.NINJA_API_33) refers to BsrJim.o(i.BsrLee) for BsrLee
    BsrGo.o(i.NINJA_API_34) refers to BsrJim.o(i.BsrLeo) for BsrLeo
    BsrGo.o(i.NINJA_API_35) refers to BsrJim.o(i.BsrLuz) for BsrLuz
    BsrGo.o(i.NINJA_API_36) refers to BsrJim.o(i.BsrMax) for BsrMax
    BsrGo.o(i.NINJA_API_38) refers to BsrGo.o(i.NINJA_API_75) for NINJA_API_75
    BsrGo.o(i.NINJA_API_39) refers to BsrGo.o(i.NINJA_API_73) for NINJA_API_73
    BsrGo.o(i.NINJA_API_41) refers to BsrJim.o(i.BsrMike) for BsrMike
    BsrGo.o(i.NINJA_API_42) refers to BsrJim.o(i.BsrMilton) for BsrMilton
    BsrGo.o(i.NINJA_API_43) refers to BsrJim.o(i.BsrEli) for BsrEli
    BsrGo.o(i.NINJA_API_44) refers to BsrJim.o(i.BsrMonica) for BsrMonica
    BsrGo.o(i.NINJA_API_45) refers to BsrJim.o(i.BsrMorris) for BsrMorris
    BsrGo.o(i.NINJA_API_46) refers to BsrDon.o(i.BsrAnna) for BsrAnna
    BsrGo.o(i.NINJA_API_47) refers to BsrDon.o(i.BsrBaby) for BsrBaby
    BsrGo.o(i.NINJA_API_47) refers to BsrKai.o(i.BsrTed) for BsrTed
    BsrGo.o(i.NINJA_API_47) refers to BsrKai.o(i.BsrTre) for BsrTre
    BsrGo.o(i.NINJA_API_47) refers to BsrKai.o(i.BsrTia) for BsrTia
    BsrGo.o(i.NINJA_API_48) refers to BsrDon.o(i.BsrBaby) for BsrBaby
    BsrGo.o(i.NINJA_API_48) refers to BsrKai.o(i.BsrTed) for BsrTed
    BsrGo.o(i.NINJA_API_48) refers to BsrKai.o(i.BsrTom) for BsrTom
    BsrGo.o(i.NINJA_API_50) refers to BsrJim.o(i.BsrMickey) for BsrMickey
    BsrGo.o(i.NINJA_API_51) refers to BsrJim.o(i.BsrLei) for BsrLei
    BsrGo.o(i.NINJA_API_52) refers to BsrKai.o(i.BsrNoe) for BsrNoe
    BsrGo.o(i.NINJA_API_59) refers to BsrJim.o(i.BsrLeonard) for BsrLeonard
    BsrGo.o(i.NINJA_API_62) refers to BsrJim.o(i.BsrEle) for BsrEle
    BsrGo.o(i.NINJA_API_63) refers to BsrJim.o(i.BsrEve) for BsrEve
    BsrGo.o(i.NINJA_API_64) refers to BsrGo.o(.constdata) for .constdata
    BsrGo.o(i.NINJA_API_65) refers to BsrJim.o(i.BsrJoyce) for BsrJoyce
    BsrGo.o(i.NINJA_API_66) refers to BsrJim.o(i.BsrEla) for BsrEla
    BsrGo.o(i.NINJA_API_67) refers to BsrJim.o(i.BsrJon) for BsrJon
    BsrGo.o(i.NINJA_API_68) refers to BsrJim.o(i.BsrJone) for BsrJone
    BsrGo.o(i.NINJA_API_69) refers to BsrJim.o(i.BsrJom) for BsrJom
    BsrGo.o(i.NINJA_API_70) refers to BsrJim.o(i.BsrJome) for BsrJome
    BsrGo.o(i.NINJA_API_71) refers to BsrJim.o(i.BsrJoea) for BsrJoea
    BsrGo.o(i.NINJA_API_72) refers to BsrGo.o(i.NINJA_API_73) for NINJA_API_73
    BsrGo.o(i.NINJA_API_73) refers to BsrGo.o(i.NINJA_API_75) for NINJA_API_75
    BsrGo.o(i.NINJA_API_73) refers to BsrAli.o(i.BsrJohn) for BsrJohn
    BsrGo.o(i.NINJA_API_73) refers to BsrJoe.o(i.BsrAbby) for BsrAbby
    BsrGo.o(i.NINJA_API_73) refers to BsrDon.o(i.BsrAlma) for BsrAlma
    BsrGo.o(i.NINJA_API_73) refers to BsrDon.o(i.BsrAnna) for BsrAnna
    BsrGo.o(i.NINJA_API_73) refers to BsrKai.o(i.BsrMya) for BsrMya
    BsrGo.o(i.NINJA_API_73) refers to BsrKai.o(i.BsrRay) for BsrRay
    BsrGo.o(i.NINJA_API_73) refers to BsrKai.o(i.BsrRex) for BsrRex
    BsrGo.o(i.NINJA_API_73) refers to BsrJim.o(i.BsrMichael) for BsrMichael
    BsrGo.o(i.NINJA_API_73) refers to BsrJim.o(i.BsrJoyci) for BsrJoyci
    BsrGo.o(i.NINJA_API_73) refers to BsrJim.o(i.BsrAna) for BsrAna
    BsrGo.o(i.NINJA_API_73) refers to BsrKai.o(i.BsrNia) for BsrNia
    BsrGo.o(i.NINJA_API_73) refers to BsrDon.o(i.BsrAmir) for BsrAmir
    BsrGo.o(i.NINJA_API_73) refers to BsrJim.o(i.BsrDan) for BsrDan
    BsrGo.o(i.NINJA_API_73) refers to BsrJim.o(i.BsrGuy) for BsrGuy
    BsrGo.o(i.NINJA_API_73) refers to BsrJim.o(i.BsrMichelle) for BsrMichelle
    BsrGo.o(i.NINJA_API_73) refers to BsrJim.o(i.BsrIvy) for BsrIvy
    BsrGo.o(i.NINJA_API_73) refers to BsrDon.o(i.BsrBaby) for BsrBaby
    BsrGo.o(i.NINJA_API_73) refers to BsrKai.o(i.BsrTed) for BsrTed
    BsrGo.o(i.NINJA_API_73) refers to BsrKai.o(i.BsrTom) for BsrTom
    BsrGo.o(i.NINJA_API_73) refers to BsrJim.o(i.BsrAri) for BsrAri
    BsrGo.o(i.NINJA_API_73) refers to BsrGo.o(.constdata) for .constdata
    BsrGo.o(i.NINJA_API_74) refers to BsrGo.o(i.NINJA_API_75) for NINJA_API_75
    BsrGo.o(i.NINJA_API_75) refers to BsrDon.o(i.BsrAnne) for BsrAnne
    BsrGo.o(i.NINJA_API_75) refers to BsrKai.o(i.BsrRoy) for BsrRoy
    BsrGo.o(i.NINJA_API_75) refers to BsrJim.o(i.BsrAvea) for BsrAvea
    BsrGo.o(i.NINJA_API_75) refers to BsrDon.o(i.BsrAnnie) for BsrAnnie
    BsrGo.o(i.NINJA_API_75) refers to BsrGo.o(.constdata) for .constdata
    BsrGo.o(i.NINJA_API_78) refers to BsrJim.o(i.BsrKab) for BsrKab
    BsrGo.o(i.NINJA_API_79) refers to BsrJim.o(i.BsrKae) for BsrKae
    BsrGo.o(i.NINJA_API_8) refers to BsrGo.o(i.NINJA_API_75) for NINJA_API_75
    BsrGo.o(i.NINJA_API_80) refers to BsrJim.o(i.BsrJam) for BsrJam
    BsrGo.o(i.NINJA_API_9) refers to BsrGo.o(i.NINJA_API_73) for NINJA_API_73
    BsrGo.o(.data) refers to BsrGo.o(.conststring) for .conststring
    CSpotterSDTrainApi.o(i.BsrLuther) refers to BsrAli.o(i.BsrJose) for BsrJose
    CSpotterSDTrainApi.o(i.BsrLux) refers to BsrGo.o(i.NINJA_API_33) for NINJA_API_33
    CSpotterSDTrainApi.o(i.BsrLux) refers to BsrGo.o(i.NINJA_API_51) for NINJA_API_51
    CSpotterSDTrainApi.o(i.BsrLux) refers to BsrGo.o(i.NINJA_API_59) for NINJA_API_59
    CSpotterSDTrainApi.o(i.BsrLux) refers to BsrGo.o(i.NINJA_API_35) for NINJA_API_35
    CSpotterSDTrainApi.o(i.BsrLux) refers to BsrLea.o(i.SdAndrew) for SdAndrew
    CSpotterSDTrainApi.o(i.BsrLux) refers to BsrLea.o(i.SdAngelica) for SdAngelica
    CSpotterSDTrainApi.o(i.BsrLux) refers to BsrJoe.o(i.BsrAbel) for BsrAbel
    CSpotterSDTrainApi.o(i.BsrLux) refers to BsrLea.o(i.SdAnita) for SdAnita
    CSpotterSDTrainApi.o(i.BsrLux) refers to BsrLea.o(i.SdAman) for SdAman
    CSpotterSDTrainApi.o(i.BsrLux) refers to BsrLea.o(i.SdAnahi) for SdAnahi
    CSpotterSDTrainApi.o(i.BsrLux) refers to BsrLea.o(i.SdAmber) for SdAmber
    CSpotterSDTrainApi.o(i.BsrLux) refers to BsrJoe.o(i.BsrAdam) for BsrAdam
    CSpotterSDTrainApi.o(i.BsrLux) refers to BsrLea.o(i.SdAngela) for SdAngela
    CSpotterSDTrainApi.o(i.CSpotterSD_AddSample) refers to BsrGo.o(i.NINJA_API_14) for NINJA_API_14
    CSpotterSDTrainApi.o(i.CSpotterSD_AddSample) refers to BsrRex.o(i.SdApril) for SdApril
    CSpotterSDTrainApi.o(i.CSpotterSD_AddSample) refers to BsrRex.o(i.SdArvid) for SdArvid
    CSpotterSDTrainApi.o(i.CSpotterSD_AddSample) refers to BsrAli.o(i.BsrJohn) for BsrJohn
    CSpotterSDTrainApi.o(i.CSpotterSD_AddUttrEnd) refers to BsrGo.o(i.NINJA_API_47) for NINJA_API_47
    CSpotterSDTrainApi.o(i.CSpotterSD_AddUttrEnd) refers to BsrLea.o(i.SdAnka) for SdAnka
    CSpotterSDTrainApi.o(i.CSpotterSD_AddUttrEnd) refers to BsrRex.o(i.SdAntonio) for SdAntonio
    CSpotterSDTrainApi.o(i.CSpotterSD_AddUttrEnd) refers to BsrRex.o(i.SdBarbara) for SdBarbara
    CSpotterSDTrainApi.o(i.CSpotterSD_AddUttrStart) refers to BsrGo.o(i.NINJA_API_38) for NINJA_API_38
    CSpotterSDTrainApi.o(i.CSpotterSD_AddUttrStart) refers to BsrGo.o(i.NINJA_API_39) for NINJA_API_39
    CSpotterSDTrainApi.o(i.CSpotterSD_AddUttrStart) refers to BsrGo.o(i.NINJA_API_48) for NINJA_API_48
    CSpotterSDTrainApi.o(i.CSpotterSD_AddUttrStart) refers to BsrJoe.o(i.BsrAbby) for BsrAbby
    CSpotterSDTrainApi.o(i.CSpotterSD_AddUttrStart) refers to BsrGo.o(i.NINJA_API_33) for NINJA_API_33
    CSpotterSDTrainApi.o(i.CSpotterSD_AddUttrStart) refers to BsrGo.o(i.NINJA_API_51) for NINJA_API_51
    CSpotterSDTrainApi.o(i.CSpotterSD_AddUttrStart) refers to BsrGo.o(i.NINJA_API_59) for NINJA_API_59
    CSpotterSDTrainApi.o(i.CSpotterSD_AddUttrStart) refers to BsrGo.o(i.NINJA_API_35) for NINJA_API_35
    CSpotterSDTrainApi.o(i.CSpotterSD_AddUttrStart) refers to BsrLea.o(i.SdAndrew) for SdAndrew
    CSpotterSDTrainApi.o(i.CSpotterSD_AddUttrStart) refers to BsrLea.o(i.SdAngelica) for SdAngelica
    CSpotterSDTrainApi.o(i.CSpotterSD_AddUttrStart) refers to BsrGo.o(i.NINJA_API_34) for NINJA_API_34
    CSpotterSDTrainApi.o(i.CSpotterSD_AddUttrStart) refers to BsrLea.o(i.SdAnja) for SdAnja
    CSpotterSDTrainApi.o(i.CSpotterSD_AddUttrStart) refers to BsrRex.o(i.SdBarry) for SdBarry
    CSpotterSDTrainApi.o(i.CSpotterSD_AddUttrStart) refers to BsrRex.o(i.SdArvin) for SdArvin
    CSpotterSDTrainApi.o(i.CSpotterSD_AddUttrStart) refers to BsrRex.o(i.SdArtturi) for SdArtturi
    CSpotterSDTrainApi.o(i.CSpotterSD_AddUttrStart) refers to BsrJoe.o(i.BsrAbel) for BsrAbel
    CSpotterSDTrainApi.o(i.CSpotterSD_AddUttrStart) refers to BsrGo.o(i.NINJA_API_3) for NINJA_API_3
    CSpotterSDTrainApi.o(i.CSpotterSD_AddUttrStart) refers to BsrLea.o(i.SdAnka) for SdAnka
    CSpotterSDTrainApi.o(i.CSpotterSD_AddUttrStart) refers to dataflashapi.o(.text) for DataFlash_Erase
    CSpotterSDTrainApi.o(i.CSpotterSD_AddUttrStart) refers to BsrRex.o(i.SdArthur_1) for SdArthur_1
    CSpotterSDTrainApi.o(i.CSpotterSD_AddUttrStart) refers to BsrAli.o(i.BsrJohn) for BsrJohn
    CSpotterSDTrainApi.o(i.CSpotterSD_DeleteWord) refers to BsrAli.o(i.BsrJosh) for BsrJosh
    CSpotterSDTrainApi.o(i.CSpotterSD_DeleteWord) refers to CSpotterSDTrainApi.o(i.BsrLuther) for BsrLuther
    CSpotterSDTrainApi.o(i.CSpotterSD_DeleteWord) refers to dataflashapi.o(.text) for DataFlash_Erase
    CSpotterSDTrainApi.o(i.CSpotterSD_DeleteWord) refers to BsrJoe.o(i.BsrAbby) for BsrAbby
    CSpotterSDTrainApi.o(i.CSpotterSD_DeleteWord) refers to BsrJoe.o(i.BsrAbel) for BsrAbel
    CSpotterSDTrainApi.o(i.CSpotterSD_DeleteWord) refers to BsrAli.o(i.BsrJose) for BsrJose
    CSpotterSDTrainApi.o(i.CSpotterSD_DeleteWord) refers to BsrAli.o(i.BsrJohn) for BsrJohn
    CSpotterSDTrainApi.o(i.CSpotterSD_DeleteWord) refers to BsrJoe.o(i.BsrAdam) for BsrAdam
    CSpotterSDTrainApi.o(i.CSpotterSD_DifferenceCheck) refers to BsrRex.o(i.SdArthur) for SdArthur
    CSpotterSDTrainApi.o(i.CSpotterSD_DifferenceCheck) refers to BsrMax.o(i.SdDora) for SdDora
    CSpotterSDTrainApi.o(i.CSpotterSD_DifferenceCheck) refers to CSpotterSDTrainApi.o(.constdata) for .constdata
    CSpotterSDTrainApi.o(i.CSpotterSD_DifferenceCheckWithRejLevel) refers to BsrRex.o(i.SdArthur) for SdArthur
    CSpotterSDTrainApi.o(i.CSpotterSD_DifferenceCheckWithRejLevel) refers to BsrMax.o(i.SdDora) for SdDora
    CSpotterSDTrainApi.o(i.CSpotterSD_GetCmdID) refers to BsrAli.o(i.BsrJosh) for BsrJosh
    CSpotterSDTrainApi.o(i.CSpotterSD_GetCmdID) refers to CSpotterSDTrainApi.o(i.BsrLuther) for BsrLuther
    CSpotterSDTrainApi.o(i.CSpotterSD_GetMemoryUsage) refers to BsrGo.o(i.NINJA_API_38) for NINJA_API_38
    CSpotterSDTrainApi.o(i.CSpotterSD_GetMemoryUsage) refers to BsrGo.o(i.NINJA_API_1) for NINJA_API_1
    CSpotterSDTrainApi.o(i.CSpotterSD_GetMemoryUsage) refers to BsrLea.o(i.SdAlfred) for SdAlfred
    CSpotterSDTrainApi.o(i.CSpotterSD_GetMemoryUsage) refers to BsrRex.o(i.SdAshley) for SdAshley
    CSpotterSDTrainApi.o(i.CSpotterSD_GetMemoryUsage) refers to BsrJoe.o(i.BsrZoe) for BsrZoe
    CSpotterSDTrainApi.o(i.CSpotterSD_GetMemoryUsage) refers to BsrRay.o(i.SdGary) for SdGary
    CSpotterSDTrainApi.o(i.CSpotterSD_GetMemoryUsage) refers to BsrRay.o(i.SdFrancis) for SdFrancis
    CSpotterSDTrainApi.o(i.CSpotterSD_GetTagID) refers to BsrAli.o(i.BsrJosh) for BsrJosh
    CSpotterSDTrainApi.o(i.CSpotterSD_GetTagID) refers to CSpotterSDTrainApi.o(i.BsrLuther) for BsrLuther
    CSpotterSDTrainApi.o(i.CSpotterSD_GetTagID) refers to CSpotterSDTrainApi.o(i.CSpotterSD_GetCmdID) for i.CSpotterSD_GetCmdID
    CSpotterSDTrainApi.o(i.CSpotterSD_GetUttrEPD) refers to BsrRex.o(i.SdBarbara) for SdBarbara
    CSpotterSDTrainApi.o(i.CSpotterSD_Init) refers to BsrGo.o(i.NINJA_API_1) for NINJA_API_1
    CSpotterSDTrainApi.o(i.CSpotterSD_Init) refers to BsrGo.o(i.NINJA_API_38) for NINJA_API_38
    CSpotterSDTrainApi.o(i.CSpotterSD_Init) refers to BsrLea.o(i.SdAlfred) for SdAlfred
    CSpotterSDTrainApi.o(i.CSpotterSD_Init) refers to BsrRex.o(i.SdAshley) for SdAshley
    CSpotterSDTrainApi.o(i.CSpotterSD_Init) refers to BsrJoe.o(i.BsrZoe) for BsrZoe
    CSpotterSDTrainApi.o(i.CSpotterSD_Init) refers to BsrRay.o(i.SdGary) for SdGary
    CSpotterSDTrainApi.o(i.CSpotterSD_Init) refers to BsrRay.o(i.SdFrancis) for SdFrancis
    CSpotterSDTrainApi.o(i.CSpotterSD_Init) refers to BsrAli.o(i.BsrJohn) for BsrJohn
    CSpotterSDTrainApi.o(i.CSpotterSD_IsoWordRecog) refers to BsrAli.o(i.BsrJosh) for BsrJosh
    CSpotterSDTrainApi.o(i.CSpotterSD_IsoWordRecog) refers to BsrRex.o(i.SdArthur) for SdArthur
    CSpotterSDTrainApi.o(i.CSpotterSD_IsoWordRecog) refers to CSpotterSDTrainApi.o(i.BsrLuther) for BsrLuther
    CSpotterSDTrainApi.o(i.CSpotterSD_IsoWordRecog) refers to CSpotterSDTrainApi.o(i.BsrLux) for BsrLux
    CSpotterSDTrainApi.o(i.CSpotterSD_Reset) refers to BsrAli.o(i.BsrJohn) for BsrJohn
    CSpotterSDTrainApi.o(i.CSpotterSD_SetBackgroundEnergyThreshd) refers to BsrRex.o(i.SdArvin) for SdArvin
    CSpotterSDTrainApi.o(i.CSpotterSD_SetEpdLevel) refers to BsrRex.o(i.SdArtturi) for SdArtturi
    CSpotterSDTrainApi.o(i.CSpotterSD_SimilarityCheck) refers to CSpotterSDTrainApi.o(i.CSpotterSD_IsoWordRecog) for CSpotterSD_IsoWordRecog
    CSpotterSDTrainApi.o(i.CSpotterSD_SimilarityCheck) refers to BsrAli.o(i.BsrJosh) for BsrJosh
    CSpotterSDTrainApi.o(i.CSpotterSD_SimilarityCheck) refers to CSpotterSDTrainApi.o(i.BsrLuther) for BsrLuther
    CSpotterSDTrainApi.o(i.CSpotterSD_SimilarityCheck) refers to CSpotterSDTrainApi.o(i.CSpotterSD_GetCmdID) for i.CSpotterSD_GetCmdID
    CSpotterSDTrainApi.o(i.CSpotterSD_SimilarityCheckWithRejLevel) refers to CSpotterSDTrainApi.o(i.CSpotterSD_IsoWordRecog) for CSpotterSD_IsoWordRecog
    CSpotterSDTrainApi.o(i.CSpotterSD_SimilarityCheckWithRejLevel) refers to BsrAli.o(i.BsrJosh) for BsrJosh
    CSpotterSDTrainApi.o(i.CSpotterSD_SimilarityCheckWithRejLevel) refers to CSpotterSDTrainApi.o(i.BsrLuther) for BsrLuther
    CSpotterSDTrainApi.o(i.CSpotterSD_SimilarityCheckWithRejLevel) refers to CSpotterSDTrainApi.o(i.CSpotterSD_GetCmdID) for i.CSpotterSD_GetCmdID
    CSpotterSDTrainApi.o(i.CSpotterSD_TrainWord) refers to BsrAli.o(i.BsrJosh) for BsrJosh
    CSpotterSDTrainApi.o(i.CSpotterSD_TrainWord) refers to CSpotterSDTrainApi.o(i.BsrLuther) for BsrLuther
    CSpotterSDTrainApi.o(i.CSpotterSD_TrainWord) refers to BsrAli.o(i.BsrJose) for BsrJose
    CSpotterSDTrainApi.o(i.CSpotterSD_TrainWord) refers to dataflashapi.o(.text) for DataFlash_Erase
    CSpotterSDTrainApi.o(i.CSpotterSD_TrainWord) refers to BsrJoe.o(i.BsrAbby) for BsrAbby
    CSpotterSDTrainApi.o(i.CSpotterSD_TrainWord) refers to BsrGo.o(i.NINJA_API_33) for NINJA_API_33
    CSpotterSDTrainApi.o(i.CSpotterSD_TrainWord) refers to BsrGo.o(i.NINJA_API_59) for NINJA_API_59
    CSpotterSDTrainApi.o(i.CSpotterSD_TrainWord) refers to BsrGo.o(i.NINJA_API_35) for NINJA_API_35
    CSpotterSDTrainApi.o(i.CSpotterSD_TrainWord) refers to BsrRay.o(i.SdGary) for SdGary
    CSpotterSDTrainApi.o(i.CSpotterSD_TrainWord) refers to BsrRay.o(i.SdGina) for SdGina
    CSpotterSDTrainApi.o(i.CSpotterSD_TrainWord) refers to BsrAli.o(i.BsrJohn) for BsrJohn
    CSpotterSDTrainApi.o(i.CSpotterSD_TrainWord) refers to CSpotterSDTrainApi.o(i.BsrLux) for BsrLux
    CSpotterSDTrainApi.o(i.CSpotterSD_TrainWord) refers to BsrJoe.o(i.BsrAbel) for BsrAbel
    CSpotterSDTrainApi.o(i.CSpotterSD_TrainWord) refers to CSpotterSDTrainApi.o(i.CSpotterSD_GetCmdID) for i.CSpotterSD_GetCmdID
    CSpotterSDTrainApi.o(i.CSpotterSD_TrainWord) refers to BsrJoe.o(i.BsrAdam) for BsrAdam
    idma.o(.text) refers to rt_memcpy_w.o(.text) for __aeabi_memcpy4
    idma.o(.text) refers to idma.o(.constdata) for .constdata
    idma.o(.text) refers to idma.o(.data) for transfer_busy
    BsrBen.o(i.BsrBrad) refers to BsrBen.o(.constdata) for .constdata
    BsrDon.o(i.BsrAlma) refers to BsrJoe.o(i.BsrAbel) for BsrAbel
    BsrDon.o(i.BsrAlma) refers to BsrAli.o(i.BsrJohn) for BsrJohn
    BsrDon.o(i.BsrAlma) refers to BsrJoe.o(i.BsrZoe) for BsrZoe
    BsrDon.o(i.BsrAlma) refers to BsrEli.o(i.BsrErica) for BsrErica
    BsrDon.o(i.BsrAmir) refers to BsrJoe.o(i.BsrAdam) for BsrAdam
    BsrDon.o(i.BsrAmos) refers to BsrJoe.o(i.BsrAbel) for BsrAbel
    BsrDon.o(i.BsrAmos) refers to BsrEva.o(i.BsrEden) for BsrEden
    BsrDon.o(i.BsrAmos) refers to BsrEva.o(i.BsrElla) for BsrElla
    BsrDon.o(i.BsrAmos) refers to BsrEva.o(i.BsrElsa) for BsrElsa
    BsrDon.o(i.BsrAmos) refers to BsrAli.o(i.BsrJose) for BsrJose
    BsrDon.o(i.BsrAmos) refers to BsrJoe.o(i.BsrAdam) for BsrAdam
    BsrDon.o(i.BsrAnna) refers to BsrEli.o(i.BsrErica) for BsrErica
    BsrDon.o(i.BsrAnne) refers to BsrJoe.o(i.BsrZoe) for BsrZoe
    BsrDon.o(i.BsrAnnie) refers to BsrJoe.o(i.BsrZoe) for BsrZoe
    BsrJim.o(i.BsrAna) refers to BsrJoe.o(i.BsrAdam) for BsrAdam
    BsrJim.o(i.BsrAsa) refers to BsrJay.o(i.BsrCadea) for BsrCadea
    BsrJim.o(i.BsrAsa) refers to BsrJay.o(i.BsrCade) for BsrCade
    BsrJim.o(i.BsrAsa) refers to BsrJay.o(i.BsrCale) for BsrCale
    BsrJim.o(i.BsrAsa) refers to BsrJay.o(i.BsrCara) for BsrCara
    BsrJim.o(i.BsrAsa) refers to BsrJay.o(i.BsrCarae) for BsrCarae
    BsrJim.o(i.BsrAsa) refers to BsrJay.o(i.BsrChada) for BsrChada
    BsrJim.o(i.BsrAsa) refers to BsrJay.o(i.BsrChaze) for BsrChaze
    BsrJim.o(i.BsrAsa) refers to BsrJay.o(i.BsrChad) for BsrChad
    BsrJim.o(i.BsrAsa) refers to BsrJay.o(i.BsrChaz) for BsrChaz
    BsrJim.o(i.BsrAsa) refers to BsrJay.o(i.BsrChaza) for BsrChaza
    BsrJim.o(i.BsrAsa) refers to BsrJay.o(i.BsrChazi) for BsrChazi
    BsrJim.o(i.BsrAsa) refers to BsrJim.o(i.BsrAri) for BsrAri
    BsrJim.o(i.BsrAsa) refers to BsrJay.o(i.BsrClay) for BsrClay
    BsrJim.o(i.BsrAve) refers to BsrJim.o(i.BsrBen) for BsrBen
    BsrJim.o(i.BsrAve) refers to BsrJoe.o(i.BsrZoe) for BsrZoe
    BsrJim.o(i.BsrAvea) refers to BsrJim.o(i.BsrBen) for BsrBen
    BsrJim.o(i.BsrAvea) refers to BsrJoe.o(i.BsrZoe) for BsrZoe
    BsrJim.o(i.BsrBen) refers to BsrJim.o(i.BsrLei) for BsrLei
    BsrJim.o(i.BsrBeni) refers to BsrJoe.o(i.BsrZoe) for BsrZoe
    BsrJim.o(i.BsrIan) refers to BsrJim.o(i.BsrMike) for BsrMike
    BsrJim.o(i.BsrIvy) refers to BsrJim.o(i.BsrMike) for BsrMike
    BsrJim.o(i.BsrJoyci) refers to BsrJoe.o(i.BsrAdam) for BsrAdam
    BsrJim.o(i.BsrJoyci) refers to BsrJoe.o(i.BsrAbel) for BsrAbel
    BsrJim.o(i.BsrLeo) refers to BsrJim.o(i.BsrLei) for BsrLei
    BsrJim.o(i.BsrLeonard) refers to BsrJim.o(i.BsrLei) for BsrLei
    BsrJim.o(i.BsrMax) refers to BsrJim.o(i.BsrLei) for BsrLei
    BsrJim.o(i.BsrMaxi) refers to BsrJim.o(i.BsrLei) for BsrLei
    BsrJim.o(i.BsrMichael) refers to BsrJim.o(i.BsrBen) for BsrBen
    BsrJim.o(i.BsrMichael) refers to BsrJoe.o(i.BsrAbel) for BsrAbel
    BsrJim.o(i.BsrMichael) refers to BsrAli.o(i.BsrJohn) for BsrJohn
    BsrJim.o(i.BsrMichael) refers to BsrJoe.o(i.BsrAdam) for BsrAdam
    BsrJim.o(i.BsrMike) refers to BsrJim.o(i.BsrLei) for BsrLei
    BsrJim.o(i.BsrMilton) refers to BsrJim.o(i.BsrMike) for BsrMike
    BsrJoe.o(i.BsrAldo) refers to BsrJoe.o(i.BsrAbel) for BsrAbel
    BsrJoe.o(i.BsrAldo) refers to BsrAli.o(i.BsrJohn) for BsrJohn
    BsrJoe.o(i.BsrAlec) refers to BsrJoe.o(i.BsrAbel) for BsrAbel
    BsrJoe.o(i.BsrAlec) refers to BsrAli.o(i.BsrJose) for BsrJose
    BsrJoe.o(i.BsrAlec) refers to BsrJoe.o(i.BsrAdam) for BsrAdam
    BsrKai.o(i.BsrMia) refers to BsrJoy.o(i.BsrCoty) for BsrCoty
    BsrKai.o(i.BsrMya) refers to BsrJoe.o(i.BsrAbel) for BsrAbel
    BsrKai.o(i.BsrMya) refers to BsrAli.o(i.BsrJohn) for BsrJohn
    BsrKai.o(i.BsrMya) refers to BsrJoy.o(i.BsrCoty) for BsrCoty
    BsrKai.o(i.BsrMya) refers to BsrJoe.o(i.BsrAdam) for BsrAdam
    BsrKai.o(i.BsrNia) refers to BsrJoy.o(i.BsrCoty) for BsrCoty
    BsrKai.o(i.BsrNia) refers to BsrJoe.o(i.BsrAdam) for BsrAdam
    BsrKai.o(i.BsrRay) refers to BsrJoy.o(i.BsrCoty) for BsrCoty
    BsrKai.o(i.BsrRay) refers to BsrJoy.o(i.BsrCory) for BsrCory
    BsrKai.o(i.BsrRay) refers to BsrJoy.o(i.BsrDane) for BsrDane
    BsrKai.o(i.BsrRay) refers to BsrJoy.o(i.BsrDawn) for BsrDawn
    BsrKai.o(i.BsrRay) refers to BsrJoy.o(i.BsrDeon) for BsrDeon
    BsrKai.o(i.BsrRay) refers to BsrKai.o(i.BsrTom) for BsrTom
    BsrKai.o(i.BsrRay) refers to BsrJoy.o(i.BsrDina) for BsrDina
    BsrKai.o(i.BsrRon) refers to BsrJoe.o(i.BsrAbel) for BsrAbel
    BsrKai.o(i.BsrRon) refers to BsrAli.o(i.BsrJose) for BsrJose
    BsrKai.o(i.BsrRon) refers to BsrJoy.o(i.BsrDeja) for BsrDeja
    BsrKai.o(i.BsrRon) refers to BsrJoy.o(i.BsrDemi) for BsrDemi
    BsrKai.o(i.BsrRon) refers to BsrJoy.o(i.BsrDane) for BsrDane
    BsrKai.o(i.BsrRon) refers to BsrJoe.o(i.BsrAdam) for BsrAdam
    BsrKai.o(i.BsrRon) refers to BsrKai.o(i.BsrJoan) for BsrJoan
    BsrKai.o(i.BsrRoy) refers to BsrJoy.o(i.BsrDion) for BsrDion
    BsrKai.o(i.BsrRoy) refers to BsrJoe.o(i.BsrZoe) for BsrZoe
    BsrKai.o(i.BsrTre) refers to BsrKai.o(i.BsrJoan) for BsrJoan
    BsrLea.o(i.SdAlbert) refers to BsrLea.o(i.SdDorothy) for SdDorothy
    BsrLea.o(i.SdAldway) refers to BsrLea.o(i.SdDorothy) for SdDorothy
    BsrLea.o(i.SdAlfred) refers to BsrJoe.o(i.BsrZoe) for BsrZoe
    BsrLea.o(i.SdAman) refers to BsrLea.o(i.SdAmbra) for SdAmbra
    BsrLea.o(i.SdAmanda) refers to BsrLea.o(i.SdAllison) for SdAllison
    BsrLea.o(i.SdAmber) refers to BsrLea.o(i.SdAmbra) for SdAmbra
    BsrLea.o(i.SdAmbra) refers to BsrLea.o(i.BsrBret) for BsrBret
    BsrLea.o(i.SdAmy) refers to BsrLea.o(i.SdAmbra) for SdAmbra
    BsrLea.o(i.SdAnahi) refers to BsrLea.o(i.BsrBret) for BsrBret
    BsrLea.o(i.SdAnahita) refers to BsrLea.o(i.BsrBret) for BsrBret
    BsrLea.o(i.SdAndrew) refers to BsrJoe.o(i.BsrAbel) for BsrAbel
    BsrLea.o(i.SdAndrew) refers to BsrAli.o(i.BsrJohn) for BsrJohn
    BsrLea.o(i.SdAndrew) refers to BsrJoe.o(i.BsrAdam) for BsrAdam
    BsrLea.o(i.SdAngela) refers to BsrJoe.o(i.BsrAdam) for BsrAdam
    BsrLea.o(i.SdArathorn) refers to BsrLea.o(i.SdAmbra) for SdAmbra
    BsrLea.o(i.SdArch) refers to BsrLea.o(i.SdAllison) for SdAllison
    BsrMax.o(i.SdDora) refers to BsrJoe.o(i.BsrAbel) for BsrAbel
    BsrMax.o(i.SdDora) refers to BsrMax.o(i.SdEmily) for SdEmily
    BsrMax.o(i.SdDora) refers to BsrJoe.o(i.BsrAdam) for BsrAdam
    BsrRay.o(i.SdFernando) refers to BsrMax.o(i.SdDora) for SdDora
    BsrRay.o(i.SdFernando) refers to BsrRay.o(.constdata) for .constdata
    BsrRay.o(i.SdFrancis) refers to BsrLea.o(i.SdAlfred) for SdAlfred
    BsrRay.o(i.SdFrancis) refers to BsrRay.o(.data) for .data
    BsrRay.o(i.SdFrank) refers to BsrLea.o(i.SdAngela) for SdAngela
    BsrRay.o(i.SdFrank) refers to BsrJoe.o(i.BsrAdam) for BsrAdam
    BsrRay.o(i.SdFrank) refers to h1_free.o(.text) for free
    BsrRay.o(i.SdFranklin) refers to BsrJoe.o(i.BsrAbel) for BsrAbel
    BsrRay.o(i.SdFranklin) refers to BsrAli.o(i.BsrJohn) for BsrJohn
    BsrRay.o(i.SdFranklin) refers to BsrLea.o(i.SdAndrew) for SdAndrew
    BsrRay.o(i.SdFranklin) refers to BsrLea.o(i.SdAlexander) for SdAlexander
    BsrRay.o(i.SdFranklin) refers to BsrJoe.o(i.BsrAdam) for BsrAdam
    BsrRay.o(i.SdFranklin) refers to h1_free.o(.text) for free
    BsrRay.o(i.SdFranklin) refers to BsrLea.o(i.SdAngela) for SdAngela
    BsrRay.o(i.SdFranklin) refers to BsrLea.o(i.SdAmanda) for SdAmanda
    BsrRay.o(i.SdFranklin) refers to BsrRay.o(.data) for .data
    BsrRay.o(i.SdGary) refers to BsrRay.o(.data) for .data
    BsrRay.o(i.SdGilbert) refers to BsrLuz.o(i.SdDavid) for SdDavid
    BsrRay.o(i.SdGilbert) refers to BsrLuz.o(i.SdErik) for SdErik
    BsrRay.o(i.SdGilbert) refers to BsrJoe.o(i.BsrAdam) for BsrAdam
    BsrRay.o(i.SdGilbert) refers to h1_free.o(.text) for free
    BsrRay.o(i.SdGina) refers to BsrRay.o(i.SdFranklin) for SdFranklin
    BsrRay.o(i.SdGina) refers to BsrMax.o(i.SdDora) for SdDora
    BsrRay.o(i.SdGina) refers to BsrRay.o(i.SdGilbert) for SdGilbert
    BsrRay.o(i.SdGina) refers to BsrLea.o(i.SdAngela) for SdAngela
    BsrRay.o(i.SdGina) refers to BsrJoe.o(i.BsrAdam) for BsrAdam
    BsrRay.o(i.SdGina) refers to h1_free.o(.text) for free
    BsrRay.o(i.SdGina) refers to BsrRay.o(.constdata) for .constdata
    BsrRex.o(i.SdAntonio) refers to BsrJoe.o(i.BsrAdam) for BsrAdam
    BsrRex.o(i.SdAntonio) refers to BsrLea.o(i.SdAdam) for SdAdam
    BsrRex.o(i.SdAntonio) refers to BsrLea.o(i.SdAnita) for SdAnita
    BsrRex.o(i.SdAntonio) refers to BsrLea.o(i.SdAman) for SdAman
    BsrRex.o(i.SdAntonio) refers to BsrLea.o(i.SdAmber) for SdAmber
    BsrRex.o(i.SdApril) refers to BsrLea.o(i.SdAdam) for SdAdam
    BsrRex.o(i.SdApril) refers to dataflashapi.o(.text) for DataFlash_Write
    BsrRex.o(i.SdApril) refers to BsrAli.o(i.BsrJose) for BsrJose
    BsrRex.o(i.SdArthur) refers to BsrJoe.o(i.BsrAdam) for BsrAdam
    BsrRex.o(i.SdArthur_1) refers to BsrLea.o(i.SdAdam) for SdAdam
    BsrRex.o(i.SdArthur_1) refers to BsrJoe.o(i.BsrAbel) for BsrAbel
    BsrRex.o(i.SdAshley) refers to BsrJoe.o(i.BsrZoe) for BsrZoe
    BsrRex.o(i.SdBarry) refers to BsrJoe.o(i.BsrAbel) for BsrAbel
    BsrRex.o(i.SdBarry) refers to BsrAli.o(i.BsrJohn) for BsrJohn
    BsrRex.o(i.SdBarry) refers to BsrJoe.o(i.BsrAdam) for BsrAdam
    BsrRex.o(i.SdBecky) refers to BsrJoe.o(i.BsrAdam) for BsrAdam
    BsrEli.o(i.BsrErica) refers to BsrEli.o(.constdata) for .constdata
    BsrEli.o(i.BsrErik) refers to BsrBen.o(i.BsrBrad) for BsrBrad
    BsrEva.o(i.BsrEden) refers to BsrGuy.o(i.BsrIrma) for BsrIrma
    BsrEva.o(i.BsrEden) refers to BsrGuy.o(i.BsrIris) for BsrIris
    BsrEva.o(i.BsrEden) refers to BsrGuy.o(i.BsrHugo) for BsrHugo
    BsrEva.o(i.BsrEden) refers to BsrGuy.o(i.BsrIsai) for BsrIsai
    BsrEva.o(i.BsrEden) refers to BsrAli.o(i.BsrJohn) for BsrJohn
    BsrEva.o(i.BsrEden) refers to BsrAnn.o(i.BsrGreg) for BsrGreg
    BsrEva.o(i.BsrEden) refers to BsrEli.o(i.BsrEric) for BsrEric
    BsrEva.o(i.BsrEden) refers to BsrEli.o(i.BsrErin) for BsrErin
    BsrEva.o(i.BsrEden) refers to BsrEli.o(i.BsrEvan) for BsrEvan
    BsrEva.o(i.BsrEden) refers to BsrEli.o(i.BsrEmma) for BsrEmma
    BsrEva.o(i.BsrEden) refers to BsrEli.o(i.BsrErik) for BsrErik
    BsrEva.o(i.BsrEden) refers to BsrAna.o(i.BsrGary) for BsrGary
    BsrEva.o(i.BsrElla) refers to BsrEva.o(i.BsrJuanitez) for BsrJuanitez
    BsrEva.o(i.BsrElsa) refers to BsrEva.o(i.BsrJuanitez) for BsrJuanitez
    BsrJay.o(i.BsrCara) refers to BsrJoe.o(i.BsrAbel) for BsrAbel
    BsrJay.o(i.BsrCara) refers to BsrAli.o(i.BsrJohn) for BsrJohn
    BsrJay.o(i.BsrCara) refers to BsrJay.o(i.BsrBret) for BsrBret
    BsrJay.o(i.BsrCara) refers to BsrJoe.o(i.BsrAdam) for BsrAdam
    BsrJay.o(i.BsrCarae) refers to BsrJay.o(i.BsrBret) for BsrBret
    BsrJay.o(i.BsrChaz) refers to BsrJoe.o(i.BsrAbel) for BsrAbel
    BsrJay.o(i.BsrChaz) refers to BsrJoe.o(i.BsrAdam) for BsrAdam
    BsrJay.o(i.BsrChaze) refers to BsrJoe.o(i.BsrAbel) for BsrAbel
    BsrJay.o(i.BsrChaze) refers to BsrJoe.o(i.BsrAdam) for BsrAdam
    BsrJay.o(i.BsrClay) refers to BsrJay.o(i.BsrJeni) for BsrJeni
    BsrJoy.o(i.BsrCory) refers to BsrJoe.o(i.BsrAbel) for BsrAbel
    BsrJoy.o(i.BsrCory) refers to BsrAli.o(i.BsrJohn) for BsrJohn
    BsrJoy.o(i.BsrCory) refers to BsrAli.o(i.BsrJosh) for BsrJosh
    BsrJoy.o(i.BsrCory) refers to BsrJoe.o(i.BsrAdam) for BsrAdam
    BsrJoy.o(i.BsrCory) refers to BsrJoy.o(.constdata) for .constdata
    BsrJoy.o(i.BsrCoty) refers to BsrJoe.o(i.BsrAdam) for BsrAdam
    BsrJoy.o(i.BsrDeon) refers to BsrJoy.o(i.BsrJamii) for BsrJamii
    BsrJoy.o(i.BsrDion) refers to BsrAli.o(i.BsrJosh) for BsrJosh
    BsrJoy.o(i.BsrDion) refers to BsrJoe.o(i.BsrZoe) for BsrZoe
    BsrJoy.o(i.BsrDion) refers to BsrJoy.o(.constdata) for .constdata
    BsrLuz.o(i.SdDavid) refers to BsrMia.o(i.SdChristopher) for SdChristopher
    BsrLuz.o(i.SdDavid) refers to BsrJoe.o(i.BsrAbel) for BsrAbel
    BsrLuz.o(i.SdDavid) refers to BsrAli.o(i.BsrJohn) for BsrJohn
    BsrLuz.o(i.SdDavid) refers to BsrMia.o(i.SdBrandon) for SdBrandon
    BsrLuz.o(i.SdDavid) refers to BsrJoe.o(i.BsrAdam) for BsrAdam
    BsrLuz.o(i.SdDavid) refers to BsrMia.o(i.SdCarmen) for SdCarmen
    BsrLuz.o(i.SdDavid) refers to BsrMia.o(i.SdConstance) for SdConstance
    BsrLuz.o(i.SdDavid) refers to BsrLuz.o(i.SdEmily) for SdEmily
    BsrLuz.o(i.SdDavid) refers to BsrRay.o(.data) for SdErno
    BsrLuz.o(i.SdDavid) refers to BsrLuz.o(.constdata) for .constdata
    BsrLuz.o(i.SdDavid) refers to BsrNia.o(i.SdEdwin) for SdEdwin
    BsrLuz.o(i.SdDavid) refers to BsrMia.o(i.SdCody) for SdCody
    BsrLuz.o(i.SdDavid) refers to BsrMia.o(i.SdChristina) for SdChristina
    BsrLuz.o(i.SdDavid) refers to BsrMia.o(i.SdCarrie) for SdCarrie
    BsrLuz.o(i.SdDavid) refers to BsrMia.o(i.SdCharles) for SdCharles
    BsrLuz.o(i.SdDavid) refers to BsrNia.o(i.SdEdward) for SdEdward
    BsrLuz.o(i.SdDavid) refers to BsrNoe.o(i.SdDanny) for SdDanny
    BsrLuz.o(i.SdEmily) refers to BsrMia.o(i.SdCathy) for SdCathy
    BsrLuz.o(i.SdErik) refers to BsrJoe.o(i.BsrAbel) for BsrAbel
    BsrLuz.o(i.SdErik) refers to BsrLea.o(i.SdAlan) for SdAlan
    BsrLuz.o(i.SdErik) refers to BsrLea.o(i.SdAlexander) for SdAlexander
    BsrLuz.o(i.SdErik) refers to BsrLea.o(i.SdAna) for SdAna
    BsrLuz.o(i.SdErik) refers to dataflashapi.o(.text) for DataFlash_Write
    BsrLuz.o(i.SdErik) refers to BsrMia.o(i.SdCathy) for SdCathy
    BsrLuz.o(i.SdErik) refers to BsrMia.o(i.SdChris) for SdChris
    BsrLuz.o(i.SdErik) refers to llshl.o(.text) for __aeabi_llsl
    BsrLuz.o(i.SdErik) refers to llsdiv.o(.text) for __aeabi_ldivmod
    BsrLuz.o(i.SdErik) refers to BsrBen.o(i.BsrBrad) for BsrBrad
    BsrLuz.o(i.SdErik) refers to llsshr.o(.text) for __aeabi_lasr
    BsrLuz.o(i.SdErik) refers to BsrJoe.o(i.BsrAdam) for BsrAdam
    BsrAna.o(i.BsrGary) refers to BsrAna.o(.constdata) for .constdata
    BsrAna.o(i.BsrGene) refers to BsrAna.o(.constdata) for .constdata
    BsrAnn.o(i.BsrGreg) refers to BsrAnn.o(.constdata) for .constdata
    BsrAnn.o(i.BsrHali) refers to BsrAnn.o(.constdata) for .constdata
    BsrAnn.o(i.BsrHans) refers to BsrAnn.o(i.BsrGreg) for BsrGreg
    BsrAnn.o(i.BsrHope) refers to BsrAnn.o(i.BsrHali) for BsrHali
    BsrGuy.o(i.BsrHugo) refers to BsrGuy.o(.constdata) for .constdata
    BsrMia.o(i.SdBrandon) refers to BsrAli.o(i.BsrJose) for BsrJose
    BsrMia.o(i.SdBrandon) refers to BsrRay.o(.data) for SdErna
    BsrMia.o(i.SdBruce) refers to BsrAli.o(i.BsrJose) for BsrJose
    BsrMia.o(i.SdBryan) refers to BsrJoe.o(i.BsrAdam) for BsrAdam
    BsrMia.o(i.SdCarmen) refers to BsrJoe.o(i.BsrAbel) for BsrAbel
    BsrMia.o(i.SdCarmen) refers to BsrLea.o(i.SdAlexander) for SdAlexander
    BsrMia.o(i.SdCarmen) refers to BsrLea.o(i.SdAna) for SdAna
    BsrMia.o(i.SdCarmen) refers to BsrLea.o(i.SdAmanda) for SdAmanda
    BsrMia.o(i.SdCarmen) refers to BsrLea.o(i.SdAlbert) for SdAlbert
    BsrMia.o(i.SdCarmen) refers to llshl.o(.text) for __aeabi_llsl
    BsrMia.o(i.SdCarmen) refers to llsdiv.o(.text) for __aeabi_ldivmod
    BsrMia.o(i.SdCarmen) refers to BsrJoe.o(i.BsrAdam) for BsrAdam
    BsrMia.o(i.SdCarmen) refers to BsrAli.o(i.BsrJose) for BsrJose
    BsrMia.o(i.SdCarmen) refers to BsrRay.o(.data) for SdErna
    BsrMia.o(i.SdChristopher) refers to BsrJoe.o(i.BsrAbel) for BsrAbel
    BsrMia.o(i.SdChristopher) refers to BsrAli.o(i.BsrJohn) for BsrJohn
    BsrMia.o(i.SdChristopher) refers to BsrRay.o(.data) for SdErma
    BsrMia.o(i.SdCindy) refers to BsrJoe.o(i.BsrAbel) for BsrAbel
    BsrMia.o(i.SdCindy) refers to BsrAli.o(i.BsrJohn) for BsrJohn
    BsrMia.o(i.SdConnie) refers to BsrAli.o(i.BsrJose) for BsrJose
    BsrNia.o(i.SdEdward) refers to BsrJoe.o(i.BsrAbel) for BsrAbel
    BsrNia.o(i.SdEdward) refers to BsrMia.o(i.SdCarol) for SdCarol
    BsrNia.o(i.SdEdward) refers to BsrMia.o(i.SdCathy) for SdCathy
    BsrNia.o(i.SdEdward) refers to BsrMia.o(i.SdConstance) for SdConstance
    BsrNia.o(i.SdEdward) refers to BsrAli.o(i.BsrJose) for BsrJose
    BsrNia.o(i.SdEdward) refers to BsrMia.o(i.SdBrandon) for SdBrandon
    BsrNia.o(i.SdEdward) refers to BsrJoe.o(i.BsrAdam) for BsrAdam
    BsrNia.o(i.SdEdwin) refers to BsrJoe.o(i.BsrAbel) for BsrAbel
    BsrNia.o(i.SdEdwin) refers to BsrAli.o(i.BsrJohn) for BsrJohn
    BsrNia.o(i.SdEdwin) refers to BsrMia.o(i.SdCathy) for SdCathy
    BsrNia.o(i.SdEdwin) refers to BsrJoe.o(i.BsrAdam) for BsrAdam
    BsrNia.o(i.SdEdwin) refers to BsrMia.o(i.SdConnie) for SdConnie
    BsrNoe.o(i.SdDanny) refers to BsrLea.o(i.SdAdam) for SdAdam
    BsrNoe.o(i.SdDanny) refers to BsrMia.o(i.SdCindy) for SdCindy
    BsrNoe.o(i.SdDanny) refers to BsrJoe.o(i.BsrAbel) for BsrAbel
    BsrNoe.o(i.SdDanny) refers to BsrLea.o(i.SdAmanda) for SdAmanda
    BsrNoe.o(i.SdDanny) refers to BsrLea.o(i.SdAlexander) for SdAlexander
    BsrNoe.o(i.SdDanny) refers to BsrLea.o(i.SdAna) for SdAna
    BsrNoe.o(i.SdDanny) refers to BsrMia.o(i.SdCarolyn) for SdCarolyn
    BsrNoe.o(i.SdDanny) refers to BsrMia.o(i.SdBruce) for SdBruce
    BsrNoe.o(i.SdDanny) refers to BsrMia.o(i.SdAnna) for SdAnna
    BsrNoe.o(i.SdDanny) refers to BsrMia.o(i.SdAnnie) for SdAnnie
    BsrNoe.o(i.SdDanny) refers to BsrLea.o(i.SdAndy) for SdAndy
    BsrNoe.o(i.SdDanny) refers to BsrLea.o(i.SdAnita) for SdAnita
    BsrNoe.o(i.SdDanny) refers to BsrLea.o(i.SdAmy) for SdAmy
    BsrNoe.o(i.SdDanny) refers to BsrMya.o(i.SdBobby) for SdBobby
    BsrNoe.o(i.SdDanny) refers to BsrAli.o(i.BsrJohn) for BsrJohn
    BsrNoe.o(i.SdDanny) refers to BsrLea.o(i.SdAlbert) for SdAlbert
    BsrNoe.o(i.SdDanny) refers to llshl.o(.text) for __aeabi_llsl
    BsrNoe.o(i.SdDanny) refers to llsdiv.o(.text) for __aeabi_ldivmod
    BsrNoe.o(i.SdDanny) refers to BsrJoe.o(i.BsrAdam) for BsrAdam
    BsrNoe.o(i.SdDanny) refers to BsrMia.o(i.SdBryan) for SdBryan
    BsrMya.o(i.SdBobby) refers to BsrMya.o(.constdata) for .constdata
    BsrMya.o(i.SdCrystal) refers to BsrMya.o(.constdata) for .constdata
    BsrMya.o(i.SdDaisy) refers to BsrMya.o(.constdata) for .constdata
    malloc.o(.text) refers (Special) to hguard.o(.text) for __heap$guard
    malloc.o(.text) refers (Special) to init_alloc.o(.text) for _init_alloc
    malloc.o(.text) refers to rt_heap_descriptor_intlibspace.o(.text) for __rt_heap_descriptor
    malloc.o(.text) refers to heapstubs.o(.text) for __Heap_Alloc
    free.o(.text) refers (Special) to hguard.o(.text) for __heap$guard
    free.o(.text) refers to rt_heap_descriptor_intlibspace.o(.text) for __rt_heap_descriptor
    free.o(.text) refers to heapstubs.o(.text) for __Heap_Free
    h1_alloc.o(.text) refers (Special) to h1_init.o(.text) for __Heap_Initialize
    h1_alloc.o(.text) refers to rt_heap_descriptor_intlibspace.o(.text) for __rt_heap_descriptor
    h1_alloc.o(.text) refers to init_alloc.o(.text) for __Heap_Full
    h1_free.o(.text) refers to rt_heap_descriptor_intlibspace.o(.text) for __rt_heap_descriptor
    h1_alloc_mt.o(.text) refers (Special) to h1_init.o(.text) for __Heap_Initialize
    h1_alloc_mt.o(.text) refers to init_alloc.o(.text) for __Heap_Full
    h1_alloc_mt.o(.text) refers to rt_heap_descriptor_intlibspace.o(.text) for __rt_heap_descriptor
    h1_free_mt.o(.text) refers to rt_heap_descriptor_intlibspace.o(.text) for __rt_heap_descriptor
    heap2.o(i._FDIterate) refers to heap2.o(.conststring) for .conststring
    heap2.o(i.___Heap_ProvideMemory$realtime) refers to fdtree.o(i._FDTree_Delete) for _FDTree_Delete
    heap2.o(i.___Heap_ProvideMemory$realtime) refers to fdtree.o(i._FDTree_Insert) for _FDTree_Insert
    heap2.o(i.___Heap_Stats$realtime) refers to heap2.o(i._Heap2_StatsIterate) for _Heap2_StatsIterate
    heap2.o(i.___Heap_Valid$realtime) refers to heap2.o(i._FDIterate) for _FDIterate
    heap2.o(i.___Heap_Valid$realtime) refers to heap2.o(.conststring) for .conststring
    heap2.o(i._free$realtime) refers to rt_heap_descriptor_intlibspace.o(.text) for __rt_heap_descriptor
    heap2.o(i._free$realtime) refers to fdtree.o(i._FDTree_Delete) for _FDTree_Delete
    heap2.o(i._free$realtime) refers to fdtree.o(i._FDTree_Insert) for _FDTree_Insert
    heap2.o(i._malloc$realtime) refers to rt_heap_descriptor_intlibspace.o(.text) for __rt_heap_descriptor
    heap2.o(i._malloc$realtime) refers to fdtree.o(i._FDTree_FindFirst) for _FDTree_FindFirst
    heap2.o(i._malloc$realtime) refers to init_alloc.o(.text) for __Heap_Full
    heap2.o(i._malloc$realtime) refers to fdtree.o(i._FDTree_RemoveNode) for _FDTree_RemoveNode
    heap2.o(i._malloc$realtime) refers to fdtree.o(i._FDTree_Insert) for _FDTree_Insert
    heap2.o(i._posix_memalign$realtime) refers to rt_heap_descriptor_intlibspace.o(.text) for __rt_heap_descriptor
    heap2.o(i._posix_memalign$realtime) refers to fdtree.o(i._FDTree_FindFirst) for _FDTree_FindFirst
    heap2.o(i._posix_memalign$realtime) refers to init_alloc.o(.text) for __Heap_Full
    heap2.o(i._posix_memalign$realtime) refers to fdtree.o(i._FDTree_RemoveNode) for _FDTree_RemoveNode
    heap2.o(i._posix_memalign$realtime) refers to fdtree.o(i._FDTree_Insert) for _FDTree_Insert
    heap2.o(i._realloc$realtime) refers to rt_heap_descriptor_intlibspace.o(.text) for __rt_heap_descriptor
    heap2.o(i._realloc$realtime) refers to fdtree.o(i._FDTree_Insert) for _FDTree_Insert
    heap2.o(i._realloc$realtime) refers to h1_free.o(.text) for free
    heap2.o(i._realloc$realtime) refers to h1_alloc.o(.text) for malloc
    heap2.o(i._realloc$realtime) refers to fdtree.o(i._FDTree_Delete) for _FDTree_Delete
    heap2.o(i._realloc$realtime) refers to rt_memcpy_w.o(.text) for __aeabi_memcpy4
    heap2mt.o(i._FDIterate) refers to heap2mt.o(.conststring) for .conststring
    heap2mt.o(i.___Heap_Initialize$realtime$concurrent) refers to mutex_dummy.o(.text) for _mutex_initialize
    heap2mt.o(i.___Heap_ProvideMemory$realtime$concurrent) refers to fdtree.o(i._FDTree_Delete) for _FDTree_Delete
    heap2mt.o(i.___Heap_ProvideMemory$realtime$concurrent) refers to fdtree.o(i._FDTree_Insert) for _FDTree_Insert
    heap2mt.o(i.___Heap_Stats$realtime$concurrent) refers to heap2mt.o(i._Heap2_StatsIterate) for _Heap2_StatsIterate
    heap2mt.o(i.___Heap_Valid$realtime$concurrent) refers to heap2mt.o(i._FDIterate) for _FDIterate
    heap2mt.o(i.___Heap_Valid$realtime$concurrent) refers to heap2mt.o(.conststring) for .conststring
    heap2mt.o(i._free$realtime$concurrent) refers to rt_heap_descriptor_intlibspace.o(.text) for __rt_heap_descriptor
    heap2mt.o(i._free$realtime$concurrent) refers to fdtree.o(i._FDTree_Delete) for _FDTree_Delete
    heap2mt.o(i._free$realtime$concurrent) refers to fdtree.o(i._FDTree_Insert) for _FDTree_Insert
    heap2mt.o(i._malloc$realtime$concurrent) refers to rt_heap_descriptor_intlibspace.o(.text) for __rt_heap_descriptor
    heap2mt.o(i._malloc$realtime$concurrent) refers to fdtree.o(i._FDTree_FindFirst) for _FDTree_FindFirst
    heap2mt.o(i._malloc$realtime$concurrent) refers to init_alloc.o(.text) for __Heap_Full
    heap2mt.o(i._malloc$realtime$concurrent) refers to fdtree.o(i._FDTree_RemoveNode) for _FDTree_RemoveNode
    heap2mt.o(i._malloc$realtime$concurrent) refers to fdtree.o(i._FDTree_Insert) for _FDTree_Insert
    heap2mt.o(i._posix_memalign$realtime$concurrent) refers to rt_heap_descriptor_intlibspace.o(.text) for __rt_heap_descriptor
    heap2mt.o(i._posix_memalign$realtime$concurrent) refers to fdtree.o(i._FDTree_FindFirst) for _FDTree_FindFirst
    heap2mt.o(i._posix_memalign$realtime$concurrent) refers to init_alloc.o(.text) for __Heap_Full
    heap2mt.o(i._posix_memalign$realtime$concurrent) refers to fdtree.o(i._FDTree_RemoveNode) for _FDTree_RemoveNode
    heap2mt.o(i._posix_memalign$realtime$concurrent) refers to fdtree.o(i._FDTree_Insert) for _FDTree_Insert
    heap2mt.o(i._realloc$realtime$concurrent) refers to rt_heap_descriptor_intlibspace.o(.text) for __rt_heap_descriptor
    heap2mt.o(i._realloc$realtime$concurrent) refers to fdtree.o(i._FDTree_Insert) for _FDTree_Insert
    heap2mt.o(i._realloc$realtime$concurrent) refers to h1_free.o(.text) for free
    heap2mt.o(i._realloc$realtime$concurrent) refers to h1_alloc.o(.text) for malloc
    heap2mt.o(i._realloc$realtime$concurrent) refers to fdtree.o(i._FDTree_Delete) for _FDTree_Delete
    heap2mt.o(i._realloc$realtime$concurrent) refers to rt_memcpy_w.o(.text) for __aeabi_memcpy4
    llsdiv.o(.text) refers to lludivv7m.o(.text) for __aeabi_uldivmod
    vsnprintf.o(.text) refers (Special) to _printf_a.o(.ARM.Collect$$_printf_percent$$00000006) for _printf_a
    vsnprintf.o(.text) refers (Special) to _printf_c.o(.ARM.Collect$$_printf_percent$$00000013) for _printf_c
    vsnprintf.o(.text) refers (Special) to _printf_charcount.o(.text) for _printf_charcount
    vsnprintf.o(.text) refers (Special) to _printf_d.o(.ARM.Collect$$_printf_percent$$00000009) for _printf_d
    vsnprintf.o(.text) refers (Special) to _printf_e.o(.ARM.Collect$$_printf_percent$$00000004) for _printf_e
    vsnprintf.o(.text) refers (Special) to _printf_f.o(.ARM.Collect$$_printf_percent$$00000003) for _printf_f
    vsnprintf.o(.text) refers (Special) to printf1.o(x$fpl$printf1) for _printf_fp_dec
    vsnprintf.o(.text) refers (Special) to printf2.o(x$fpl$printf2) for _printf_fp_hex
    vsnprintf.o(.text) refers (Special) to _printf_g.o(.ARM.Collect$$_printf_percent$$00000005) for _printf_g
    vsnprintf.o(.text) refers (Special) to _printf_i.o(.ARM.Collect$$_printf_percent$$00000008) for _printf_i
    vsnprintf.o(.text) refers (Special) to _printf_dec.o(.text) for _printf_int_dec
    vsnprintf.o(.text) refers (Special) to _printf_l.o(.ARM.Collect$$_printf_percent$$00000012) for _printf_l
    vsnprintf.o(.text) refers (Special) to _printf_lc.o(.ARM.Collect$$_printf_percent$$00000015) for _printf_lc
    vsnprintf.o(.text) refers (Special) to _printf_ll.o(.ARM.Collect$$_printf_percent$$00000007) for _printf_ll
    vsnprintf.o(.text) refers (Special) to _printf_lld.o(.ARM.Collect$$_printf_percent$$0000000E) for _printf_lld
    vsnprintf.o(.text) refers (Special) to _printf_lli.o(.ARM.Collect$$_printf_percent$$0000000D) for _printf_lli
    vsnprintf.o(.text) refers (Special) to _printf_llo.o(.ARM.Collect$$_printf_percent$$00000010) for _printf_llo
    vsnprintf.o(.text) refers (Special) to _printf_llu.o(.ARM.Collect$$_printf_percent$$0000000F) for _printf_llu
    vsnprintf.o(.text) refers (Special) to _printf_llx.o(.ARM.Collect$$_printf_percent$$00000011) for _printf_llx
    vsnprintf.o(.text) refers (Special) to _printf_longlong_dec.o(.text) for _printf_longlong_dec
    vsnprintf.o(.text) refers (Special) to _printf_hex_int_ll_ptr.o(.text) for _printf_longlong_hex
    vsnprintf.o(.text) refers (Special) to _printf_oct_int_ll.o(.text) for _printf_longlong_oct
    vsnprintf.o(.text) refers (Special) to _printf_ls.o(.ARM.Collect$$_printf_percent$$00000016) for _printf_ls
    vsnprintf.o(.text) refers (Special) to _printf_n.o(.ARM.Collect$$_printf_percent$$00000001) for _printf_n
    vsnprintf.o(.text) refers (Special) to _printf_o.o(.ARM.Collect$$_printf_percent$$0000000B) for _printf_o
    vsnprintf.o(.text) refers (Special) to _printf_p.o(.ARM.Collect$$_printf_percent$$00000002) for _printf_p
    vsnprintf.o(.text) refers (Special) to _printf_percent.o(.ARM.Collect$$_printf_percent$$00000000) for _printf_percent
    vsnprintf.o(.text) refers (Special) to _printf_pad.o(.text) for _printf_post_padding
    vsnprintf.o(.text) refers (Special) to _printf_s.o(.ARM.Collect$$_printf_percent$$00000014) for _printf_s
    vsnprintf.o(.text) refers (Special) to _printf_str.o(.text) for _printf_str
    vsnprintf.o(.text) refers (Special) to _printf_truncate.o(.text) for _printf_truncate_signed
    vsnprintf.o(.text) refers (Special) to _printf_u.o(.ARM.Collect$$_printf_percent$$0000000A) for _printf_u
    vsnprintf.o(.text) refers (Special) to _printf_wctomb.o(.text) for _printf_wctomb
    vsnprintf.o(.text) refers (Special) to _printf_x.o(.ARM.Collect$$_printf_percent$$0000000C) for _printf_x
    vsnprintf.o(.text) refers to _printf_char_common.o(.text) for _printf_char_common
    vsnprintf.o(.text) refers to _sputc.o(.text) for _sputc
    vsnprintf.o(.text) refers to _snputc.o(.text) for _snputc
    rt_memcpy_v6.o(.text) refers to rt_memcpy_w.o(.text) for __aeabi_memcpy4
    aeabi_memset.o(.text) refers to rt_memclr.o(.text) for _memset
    rt_memclr.o(.text) refers to rt_memclr_w.o(.text) for _memset_w
    __main.o(!!!main) refers to __rtentry.o(.ARM.Collect$$rtentry$$00000000) for __rt_entry
    ddiv.o(x$fpl$drdiv) refers (Special) to usenofp.o(x$fpl$usenofp) for __I$use$fp
    ddiv.o(x$fpl$drdiv) refers to ddiv.o(x$fpl$ddiv) for ddiv_entry
    ddiv.o(x$fpl$ddiv) refers (Special) to usenofp.o(x$fpl$usenofp) for __I$use$fp
    ddiv.o(x$fpl$ddiv) refers to dretinf.o(x$fpl$dretinf) for __fpl_dretinf
    ddiv.o(x$fpl$ddiv) refers to dnaninf.o(x$fpl$dnaninf) for __fpl_dnaninf
    dfix.o(x$fpl$dfix) refers (Special) to usenofp.o(x$fpl$usenofp) for __I$use$fp
    dfix.o(x$fpl$dfix) refers to dnaninf.o(x$fpl$dnaninf) for __fpl_dnaninf
    dfix.o(x$fpl$dfixr) refers (Special) to usenofp.o(x$fpl$usenofp) for __I$use$fp
    dfix.o(x$fpl$dfixr) refers to dnaninf.o(x$fpl$dnaninf) for __fpl_dnaninf
    dflt_clz.o(x$fpl$dfltu) refers (Special) to usenofp.o(x$fpl$usenofp) for __I$use$fp
    dflt_clz.o(x$fpl$dflt) refers (Special) to usenofp.o(x$fpl$usenofp) for __I$use$fp
    dflt_clz.o(x$fpl$dfltn) refers (Special) to usenofp.o(x$fpl$usenofp) for __I$use$fp
    dleqf.o(x$fpl$dleqf) refers (Special) to usenofp.o(x$fpl$usenofp) for __I$use$fp
    dleqf.o(x$fpl$dleqf) refers to dnaninf.o(x$fpl$dnaninf) for __fpl_dnaninf
    dleqf.o(x$fpl$dleqf) refers to dcmpi.o(x$fpl$dcmpinf) for __fpl_dcmp_Inf
    dmul.o(x$fpl$dmul) refers (Special) to usenofp.o(x$fpl$usenofp) for __I$use$fp
    dmul.o(x$fpl$dmul) refers to dretinf.o(x$fpl$dretinf) for __fpl_dretinf
    dmul.o(x$fpl$dmul) refers to dnaninf.o(x$fpl$dnaninf) for __fpl_dnaninf
    f2d.o(x$fpl$f2d) refers (Special) to usenofp.o(x$fpl$usenofp) for __I$use$fp
    f2d.o(x$fpl$f2d) refers to fnaninf.o(x$fpl$fnaninf) for __fpl_fnaninf
    f2d.o(x$fpl$f2d) refers to dretinf.o(x$fpl$dretinf) for __fpl_dretinf
    fflt_clz.o(x$fpl$ffltu) refers (Special) to usenofp.o(x$fpl$usenofp) for __I$use$fp
    fflt_clz.o(x$fpl$fflt) refers (Special) to usenofp.o(x$fpl$usenofp) for __I$use$fp
    fflt_clz.o(x$fpl$ffltn) refers (Special) to usenofp.o(x$fpl$usenofp) for __I$use$fp
    __rtentry.o(.ARM.Collect$$rtentry$$00000000) refers (Special) to __rtentry2.o(.ARM.Collect$$rtentry$$0000000A) for __rt_entry_li
    __rtentry.o(.ARM.Collect$$rtentry$$00000000) refers (Special) to __rtentry2.o(.ARM.Collect$$rtentry$$0000000D) for __rt_entry_main
    __rtentry.o(.ARM.Collect$$rtentry$$00000000) refers (Special) to __rtentry2.o(.ARM.Collect$$rtentry$$0000000C) for __rt_entry_postli_1
    __rtentry.o(.ARM.Collect$$rtentry$$00000000) refers (Special) to __rtentry2.o(.ARM.Collect$$rtentry$$00000009) for __rt_entry_postsh_1
    __rtentry.o(.ARM.Collect$$rtentry$$00000000) refers (Special) to __rtentry2.o(.ARM.Collect$$rtentry$$00000002) for __rt_entry_presh_1
    __rtentry.o(.ARM.Collect$$rtentry$$00000000) refers (Special) to __rtentry4.o(.ARM.Collect$$rtentry$$00000004) for __rt_entry_sh
    rt_heap_descriptor.o(.text) refers to rt_heap_descriptor.o(.bss) for __rt_heap_descriptor_data
    rt_heap_descriptor_intlibspace.o(.text) refers to libspace.o(.bss) for __libspace_start
    init_alloc.o(.text) refers (Special) to hguard.o(.text) for __heap$guard
    init_alloc.o(.text) refers (Special) to libinit2.o(.ARM.Collect$$libinit$$00000005) for __rt_lib_init_heap_2
    init_alloc.o(.text) refers (Special) to maybetermalloc1.o(.emb_text) for _maybe_terminate_alloc
    init_alloc.o(.text) refers to h1_extend.o(.text) for __Heap_ProvideMemory
    init_alloc.o(.text) refers to defsig_rtmem_outer.o(.text) for __rt_SIGRTMEM
    init_alloc.o(.text) refers to rt_heap_descriptor_intlibspace.o(.text) for __rt_heap_descriptor
    init_alloc.o(.text) refers to h1_init.o(.text) for __Heap_Initialize
    h1_init_mt.o(.text) refers to mutex_dummy.o(.text) for _mutex_initialize
    __printf.o(.text) refers to _printf_percent.o(.ARM.Collect$$_printf_percent$$00000000) for _printf_percent
    _printf_str.o(.text) refers (Special) to _printf_char.o(.text) for _printf_cs_common
    _printf_str.o(.text) refers (Weak) to _printf_pad.o(.text) for _printf_pre_padding
    _printf_str.o(.text) refers (Weak) to _printf_pad.o(.text) for _printf_post_padding
    _printf_dec.o(.text) refers (Weak) to _printf_truncate.o(.text) for _printf_truncate_signed
    _printf_dec.o(.text) refers (Weak) to _printf_truncate.o(.text) for _printf_truncate_unsigned
    _printf_dec.o(.text) refers to _printf_intcommon.o(.text) for _printf_int_common
    _printf_char_common.o(.text) refers to __printf_flags_ss_wp.o(.text) for __printf
    _printf_wctomb.o(.text) refers (Special) to _printf_wchar.o(.text) for _printf_lcs_common
    _printf_wctomb.o(.text) refers to _wcrtomb.o(.text) for _wcrtomb
    _printf_wctomb.o(.text) refers (Weak) to _printf_pad.o(.text) for _printf_pre_padding
    _printf_wctomb.o(.text) refers (Weak) to _printf_pad.o(.text) for _printf_post_padding
    _printf_wctomb.o(.text) refers to _printf_wctomb.o(.constdata) for .constdata
    _printf_wctomb.o(.constdata) refers (Special) to _printf_wchar.o(.text) for _printf_lcs_common
    _printf_longlong_dec.o(.text) refers to lludiv10.o(.text) for _ll_udiv10
    _printf_longlong_dec.o(.text) refers to _printf_intcommon.o(.text) for _printf_int_common
    _printf_oct_ll.o(.text) refers to _printf_intcommon.o(.text) for _printf_int_common
    _printf_oct_int.o(.text) refers (Weak) to _printf_truncate.o(.text) for _printf_truncate_unsigned
    _printf_oct_int.o(.text) refers to _printf_intcommon.o(.text) for _printf_int_common
    _printf_oct_int_ll.o(.text) refers to _printf_intcommon.o(.text) for _printf_int_common
    _printf_oct_int_ll.o(.text) refers (Weak) to _printf_truncate.o(.text) for _printf_truncate_unsigned
    _printf_hex_ll.o(.text) refers to _printf_intcommon.o(.text) for _printf_int_common
    _printf_hex_ll.o(.text) refers to _printf_hex_ll.o(.constdata) for .constdata
    _printf_hex_int.o(.text) refers (Weak) to _printf_truncate.o(.text) for _printf_truncate_unsigned
    _printf_hex_int.o(.text) refers to _printf_intcommon.o(.text) for _printf_int_common
    _printf_hex_int.o(.text) refers to _printf_hex_int.o(.constdata) for .constdata
    _printf_hex_int_ll.o(.text) refers to _printf_intcommon.o(.text) for _printf_int_common
    _printf_hex_int_ll.o(.text) refers (Weak) to _printf_truncate.o(.text) for _printf_truncate_unsigned
    _printf_hex_int_ll.o(.text) refers to _printf_hex_int_ll.o(.constdata) for .constdata
    _printf_hex_ptr.o(.text) refers to _printf_intcommon.o(.text) for _printf_int_common
    _printf_hex_ptr.o(.text) refers to _printf_hex_ptr.o(.constdata) for .constdata
    _printf_hex_int_ptr.o(.text) refers to _printf_intcommon.o(.text) for _printf_int_common
    _printf_hex_int_ptr.o(.text) refers (Weak) to _printf_truncate.o(.text) for _printf_truncate_unsigned
    _printf_hex_int_ptr.o(.text) refers to _printf_hex_int_ptr.o(.constdata) for .constdata
    _printf_hex_ll_ptr.o(.text) refers to _printf_intcommon.o(.text) for _printf_int_common
    _printf_hex_ll_ptr.o(.text) refers to _printf_hex_ll_ptr.o(.constdata) for .constdata
    _printf_hex_int_ll_ptr.o(.text) refers to _printf_intcommon.o(.text) for _printf_int_common
    _printf_hex_int_ll_ptr.o(.text) refers (Weak) to _printf_truncate.o(.text) for _printf_truncate_unsigned
    _printf_hex_int_ll_ptr.o(.text) refers to _printf_hex_int_ll_ptr.o(.constdata) for .constdata
    __printf_flags.o(.text) refers to _printf_percent.o(.ARM.Collect$$_printf_percent$$00000000) for _printf_percent
    __printf_flags.o(.text) refers to __printf_flags.o(.constdata) for .constdata
    __printf_ss.o(.text) refers to _printf_percent.o(.ARM.Collect$$_printf_percent$$00000000) for _printf_percent
    __printf_flags_ss.o(.text) refers to _printf_percent.o(.ARM.Collect$$_printf_percent$$00000000) for _printf_percent
    __printf_flags_ss.o(.text) refers to __printf_flags_ss.o(.constdata) for .constdata
    __printf_wp.o(.text) refers to __printf_wp.o(i._is_digit) for _is_digit
    __printf_wp.o(.text) refers to _printf_percent.o(.ARM.Collect$$_printf_percent$$00000000) for _printf_percent
    __printf_flags_wp.o(.text) refers to __printf_wp.o(i._is_digit) for _is_digit
    __printf_flags_wp.o(.text) refers to _printf_percent.o(.ARM.Collect$$_printf_percent$$00000000) for _printf_percent
    __printf_flags_wp.o(.text) refers to __printf_flags_wp.o(.constdata) for .constdata
    __printf_ss_wp.o(.text) refers to __printf_wp.o(i._is_digit) for _is_digit
    __printf_ss_wp.o(.text) refers to _printf_percent.o(.ARM.Collect$$_printf_percent$$00000000) for _printf_percent
    __printf_flags_ss_wp.o(.text) refers to __printf_wp.o(i._is_digit) for _is_digit
    __printf_flags_ss_wp.o(.text) refers to _printf_percent.o(.ARM.Collect$$_printf_percent$$00000000) for _printf_percent
    __printf_flags_ss_wp.o(.text) refers to __printf_flags_ss_wp.o(.constdata) for .constdata
    _printf_c.o(.ARM.Collect$$_printf_percent$$00000013) refers (Weak) to _printf_char.o(.text) for _printf_char
    _printf_s.o(.ARM.Collect$$_printf_percent$$00000014) refers (Weak) to _printf_char.o(.text) for _printf_string
    _printf_n.o(.ARM.Collect$$_printf_percent$$00000001) refers (Weak) to _printf_charcount.o(.text) for _printf_charcount
    _printf_x.o(.ARM.Collect$$_printf_percent$$0000000C) refers (Weak) to _printf_hex_int_ll_ptr.o(.text) for _printf_int_hex
    _printf_p.o(.ARM.Collect$$_printf_percent$$00000002) refers (Weak) to _printf_hex_int_ll_ptr.o(.text) for _printf_hex_ptr
    _printf_o.o(.ARM.Collect$$_printf_percent$$0000000B) refers (Weak) to _printf_oct_int_ll.o(.text) for _printf_int_oct
    _printf_i.o(.ARM.Collect$$_printf_percent$$00000008) refers (Weak) to _printf_dec.o(.text) for _printf_int_dec
    _printf_d.o(.ARM.Collect$$_printf_percent$$00000009) refers (Weak) to _printf_dec.o(.text) for _printf_int_dec
    _printf_u.o(.ARM.Collect$$_printf_percent$$0000000A) refers (Weak) to _printf_dec.o(.text) for _printf_int_dec
    _printf_f.o(.ARM.Collect$$_printf_percent$$00000003) refers (Weak) to printf1.o(x$fpl$printf1) for _printf_fp_dec
    _printf_e.o(.ARM.Collect$$_printf_percent$$00000004) refers (Weak) to printf1.o(x$fpl$printf1) for _printf_fp_dec
    _printf_g.o(.ARM.Collect$$_printf_percent$$00000005) refers (Weak) to printf1.o(x$fpl$printf1) for _printf_fp_dec
    _printf_a.o(.ARM.Collect$$_printf_percent$$00000006) refers (Weak) to printf2.o(x$fpl$printf2) for _printf_fp_hex
    _printf_percent.o(.ARM.Collect$$_printf_percent$$00000000) refers (Special) to _printf_percent_end.o(.ARM.Collect$$_printf_percent$$00000017) for _printf_percent_end
    _printf_lli.o(.ARM.Collect$$_printf_percent$$0000000D) refers (Special) to _printf_ll.o(.ARM.Collect$$_printf_percent$$00000007) for _printf_ll
    _printf_lli.o(.ARM.Collect$$_printf_percent$$0000000D) refers (Weak) to _printf_longlong_dec.o(.text) for _printf_longlong_dec
    _printf_lld.o(.ARM.Collect$$_printf_percent$$0000000E) refers (Special) to _printf_ll.o(.ARM.Collect$$_printf_percent$$00000007) for _printf_ll
    _printf_lld.o(.ARM.Collect$$_printf_percent$$0000000E) refers (Weak) to _printf_longlong_dec.o(.text) for _printf_longlong_dec
    _printf_llu.o(.ARM.Collect$$_printf_percent$$0000000F) refers (Special) to _printf_ll.o(.ARM.Collect$$_printf_percent$$00000007) for _printf_ll
    _printf_llu.o(.ARM.Collect$$_printf_percent$$0000000F) refers (Weak) to _printf_longlong_dec.o(.text) for _printf_longlong_dec
    _printf_lc.o(.ARM.Collect$$_printf_percent$$00000015) refers (Special) to _printf_l.o(.ARM.Collect$$_printf_percent$$00000012) for _printf_l
    _printf_lc.o(.ARM.Collect$$_printf_percent$$00000015) refers (Weak) to _printf_wchar.o(.text) for _printf_wchar
    _printf_ls.o(.ARM.Collect$$_printf_percent$$00000016) refers (Special) to _printf_l.o(.ARM.Collect$$_printf_percent$$00000012) for _printf_l
    _printf_ls.o(.ARM.Collect$$_printf_percent$$00000016) refers (Weak) to _printf_wchar.o(.text) for _printf_wstring
    _printf_llo.o(.ARM.Collect$$_printf_percent$$00000010) refers (Special) to _printf_ll.o(.ARM.Collect$$_printf_percent$$00000007) for _printf_ll
    _printf_llo.o(.ARM.Collect$$_printf_percent$$00000010) refers (Weak) to _printf_oct_int_ll.o(.text) for _printf_ll_oct
    _printf_llx.o(.ARM.Collect$$_printf_percent$$00000011) refers (Special) to _printf_ll.o(.ARM.Collect$$_printf_percent$$00000007) for _printf_ll
    _printf_llx.o(.ARM.Collect$$_printf_percent$$00000011) refers (Weak) to _printf_hex_int_ll_ptr.o(.text) for _printf_ll_hex
    _get_argv.o(.text) refers (Special) to hrguard.o(.text) for __heap_region$guard
    _get_argv.o(.text) refers to h1_alloc.o(.text) for malloc
    _get_argv.o(.text) refers to defsig_rtmem_outer.o(.text) for __rt_SIGRTMEM
    _get_argv.o(.text) refers to sys_command.o(.text) for _sys_command_string
    libinit2.o(.ARM.Collect$$libinit$$00000005) refers (Weak) to init_alloc.o(.text) for _init_alloc
    libinit2.o(.ARM.Collect$$libinit$$0000000F) refers (Weak) to rt_locale_intlibspace.o(.text) for __rt_locale
    libinit2.o(.ARM.Collect$$libinit$$00000010) refers to libinit2.o(.ARM.Collect$$libinit$$0000000F) for .ARM.Collect$$libinit$$0000000F
    libinit2.o(.ARM.Collect$$libinit$$00000012) refers to libinit2.o(.ARM.Collect$$libinit$$0000000F) for .ARM.Collect$$libinit$$0000000F
    libinit2.o(.ARM.Collect$$libinit$$00000012) refers (Weak) to lc_ctype_c.o(locale$$code) for _get_lc_ctype
    libinit2.o(.ARM.Collect$$libinit$$00000014) refers to libinit2.o(.ARM.Collect$$libinit$$0000000F) for .ARM.Collect$$libinit$$0000000F
    libinit2.o(.ARM.Collect$$libinit$$00000016) refers to libinit2.o(.ARM.Collect$$libinit$$0000000F) for .ARM.Collect$$libinit$$0000000F
    libinit2.o(.ARM.Collect$$libinit$$00000016) refers (Weak) to lc_numeric_c.o(locale$$code) for _get_lc_numeric
    libinit2.o(.ARM.Collect$$libinit$$00000018) refers to libinit2.o(.ARM.Collect$$libinit$$0000000F) for .ARM.Collect$$libinit$$0000000F
    libinit2.o(.ARM.Collect$$libinit$$00000026) refers to argv_veneer.o(.emb_text) for __ARM_argv_veneer
    libinit2.o(.ARM.Collect$$libinit$$00000027) refers to argv_veneer.o(.emb_text) for __ARM_argv_veneer
    dcmpi.o(x$fpl$dcmpinf) refers (Special) to usenofp.o(x$fpl$usenofp) for __I$use$fp
    dnaninf.o(x$fpl$dnaninf) refers (Special) to usenofp.o(x$fpl$usenofp) for __I$use$fp
    dretinf.o(x$fpl$dretinf) refers (Special) to usenofp.o(x$fpl$usenofp) for __I$use$fp
    fnaninf.o(x$fpl$fnaninf) refers (Special) to usenofp.o(x$fpl$usenofp) for __I$use$fp
    printf1.o(x$fpl$printf1) refers to _printf_fp_dec.o(.text) for _printf_fp_dec_real
    printf2.o(x$fpl$printf2) refers to _printf_fp_hex.o(.text) for _printf_fp_hex_real
    printf2b.o(x$fpl$printf2) refers to _printf_fp_hex.o(.text) for _printf_fp_hex_real
    sys_command.o(.text) refers (Special) to use_no_semi.o(.text) for __I$use$semihosting
    sys_command.o(.text) refers (Special) to indicate_semi.o(.text) for __semihosting_library_function
    libspace.o(.text) refers to libspace.o(.bss) for __libspace_start
    __rtentry2.o(.ARM.Collect$$rtentry$$00000008) refers to boardinit2.o(.text) for _platform_post_stackheap_init
    __rtentry2.o(.ARM.Collect$$rtentry$$0000000A) refers to libinit.o(.ARM.Collect$$libinit$$00000000) for __rt_lib_init
    __rtentry2.o(.ARM.Collect$$rtentry$$0000000B) refers to boardinit3.o(.text) for _platform_post_lib_init
    __rtentry2.o(.ARM.Collect$$rtentry$$0000000D) refers to main.o(.text) for main
    __rtentry2.o(.ARM.Collect$$rtentry$$0000000D) refers to exit.o(.text) for exit
    __rtentry2.o(.ARM.exidx) refers to __rtentry2.o(.ARM.Collect$$rtentry$$00000001) for .ARM.Collect$$rtentry$$00000001
    __rtentry2.o(.ARM.exidx) refers to __rtentry2.o(.ARM.Collect$$rtentry$$00000008) for .ARM.Collect$$rtentry$$00000008
    __rtentry2.o(.ARM.exidx) refers to __rtentry2.o(.ARM.Collect$$rtentry$$0000000A) for .ARM.Collect$$rtentry$$0000000A
    __rtentry2.o(.ARM.exidx) refers to __rtentry2.o(.ARM.Collect$$rtentry$$0000000B) for .ARM.Collect$$rtentry$$0000000B
    __rtentry2.o(.ARM.exidx) refers to __rtentry2.o(.ARM.Collect$$rtentry$$0000000D) for .ARM.Collect$$rtentry$$0000000D
    __rtentry4.o(.ARM.Collect$$rtentry$$00000004) refers to sys_stackheap_outer.o(.text) for __user_setup_stackheap
    __rtentry4.o(.ARM.exidx) refers to __rtentry4.o(.ARM.Collect$$rtentry$$00000004) for .ARM.Collect$$rtentry$$00000004
    aeabi_ldiv0_sigfpe.o(.text) refers to rt_div0.o(.text) for __rt_div0
    maybetermalloc2.o(.emb_text) refers (Special) to term_alloc.o(.text) for _terminate_alloc
    h1_extend.o(.text) refers to h1_free.o(.text) for free
    h1_extend_mt.o(.text) refers to h1_free_mt.o(.text) for _free_internal
    _printf_intcommon.o(.text) refers (Weak) to _printf_pad.o(.text) for _printf_pre_padding
    _printf_intcommon.o(.text) refers (Weak) to _printf_pad.o(.text) for _printf_pre_padding
    _printf_intcommon.o(.text) refers (Weak) to _printf_pad.o(.text) for _printf_post_padding
    _printf_fp_dec.o(.text) refers (Special) to usenofp.o(x$fpl$usenofp) for __I$use$fp
    _printf_fp_dec.o(.text) refers (Special) to lc_numeric_c.o(locale$$code) for _get_lc_numeric
    _printf_fp_dec.o(.text) refers to bigflt0.o(.text) for _btod_etento
    _printf_fp_dec.o(.text) refers to btod.o(CL$$btod_d2e) for _btod_d2e
    _printf_fp_dec.o(.text) refers to btod.o(CL$$btod_ediv) for _btod_ediv
    _printf_fp_dec.o(.text) refers to btod.o(CL$$btod_emul) for _btod_emul
    _printf_fp_dec.o(.text) refers to lludiv10.o(.text) for _ll_udiv10
    _printf_fp_dec.o(.text) refers to fpclassify.o(i.__ARM_fpclassify) for __ARM_fpclassify
    _printf_fp_dec.o(.text) refers to _printf_fp_infnan.o(.text) for _printf_fp_infnan
    _printf_fp_dec.o(.text) refers (Weak) to _printf_pad.o(.text) for _printf_pre_padding
    _printf_fp_dec.o(.text) refers (Weak) to _printf_pad.o(.text) for _printf_pre_padding
    _printf_fp_dec.o(.text) refers to rt_locale_intlibspace.o(.text) for __rt_locale
    _printf_fp_dec.o(.text) refers (Weak) to _printf_pad.o(.text) for _printf_post_padding
    _printf_fp_hex.o(.text) refers (Special) to usenofp.o(x$fpl$usenofp) for __I$use$fp
    _printf_fp_hex.o(.text) refers to fpclassify.o(i.__ARM_fpclassify) for __ARM_fpclassify
    _printf_fp_hex.o(.text) refers to _printf_fp_infnan.o(.text) for _printf_fp_infnan
    _printf_fp_hex.o(.text) refers (Weak) to _printf_pad.o(.text) for _printf_pre_padding
    _printf_fp_hex.o(.text) refers (Weak) to _printf_pad.o(.text) for _printf_pre_padding
    _printf_fp_hex.o(.text) refers (Weak) to _printf_pad.o(.text) for _printf_post_padding
    _printf_fp_hex.o(.text) refers to _printf_fp_hex.o(.constdata) for .constdata
    _printf_fp_hex.o(.constdata) refers (Special) to usenofp.o(x$fpl$usenofp) for __I$use$fp
    _printf_char.o(.text) refers (Weak) to _printf_str.o(.text) for _printf_str
    _printf_wchar.o(.text) refers (Weak) to _printf_wctomb.o(.text) for _printf_wctomb
    _wcrtomb.o(.text) refers to rt_ctype_table.o(.text) for __rt_ctype_table
    defsig_rtmem_outer.o(.text) refers to defsig_rtmem_inner.o(.text) for __rt_SIGRTMEM_inner
    defsig_rtmem_outer.o(.text) refers to defsig_exit.o(.text) for __sig_exit
    defsig_rtmem_formal.o(.text) refers to rt_raise.o(.text) for __rt_raise
    heapauxa.o(.text) refers to heapauxa.o(.data) for .data
    argv_veneer.o(.emb_text) refers to no_argv.o(.text) for __ARM_get_argv
    sys_stackheap_outer.o(.text) refers to libspace.o(.text) for __user_perproc_libspace
    sys_stackheap_outer.o(.text) refers to startup.o(.text) for __user_initial_stackheap
    rt_ctype_table.o(.text) refers to rt_locale_intlibspace.o(.text) for __rt_locale
    rt_ctype_table.o(.text) refers to lc_ctype_c.o(locale$$code) for _get_lc_ctype
    rt_div0.o(.text) refers to defsig_fpe_outer.o(.text) for __rt_SIGFPE
    rt_raise.o(.text) refers to __raise.o(.text) for __raise
    rt_raise.o(.text) refers to sys_exit.o(.text) for _sys_exit
    rt_locale.o(.text) refers to rt_locale.o(.bss) for __rt_locale_data
    rt_locale_intlibspace.o(.text) refers to libspace.o(.bss) for __libspace_start
    term_alloc.o(.text) refers (Special) to libshutdown2.o(.ARM.Collect$$libshutdown$$0000000E) for __rt_lib_shutdown_heap_2
    term_alloc.o(.text) refers to rt_heap_descriptor_intlibspace.o(.text) for __rt_heap_descriptor
    term_alloc.o(.text) refers to h1_final.o(.text) for __Heap_Finalize
    _printf_fp_infnan.o(.text) refers (Weak) to _printf_pad.o(.text) for _printf_pre_padding
    _printf_fp_infnan.o(.text) refers (Weak) to _printf_pad.o(.text) for _printf_post_padding
    bigflt0.o(.text) refers (Special) to usenofp.o(x$fpl$usenofp) for __I$use$fp
    bigflt0.o(.text) refers to btod.o(CL$$btod_emul) for _btod_emul
    bigflt0.o(.text) refers to btod.o(CL$$btod_ediv) for _btod_ediv
    bigflt0.o(.text) refers to bigflt0.o(.constdata) for .constdata
    bigflt0.o(.constdata) refers (Special) to usenofp.o(x$fpl$usenofp) for __I$use$fp
    btod.o(CL$$btod_d2e) refers (Special) to usenofp.o(x$fpl$usenofp) for __I$use$fp
    btod.o(CL$$btod_d2e) refers to btod.o(CL$$btod_d2e_norm_op1) for _d2e_norm_op1
    btod.o(CL$$btod_d2e_norm_op1) refers (Special) to usenofp.o(x$fpl$usenofp) for __I$use$fp
    btod.o(CL$$btod_d2e_norm_op1) refers to btod.o(CL$$btod_d2e_denorm_low) for _d2e_denorm_low
    btod.o(CL$$btod_d2e_denorm_low) refers (Special) to usenofp.o(x$fpl$usenofp) for __I$use$fp
    btod.o(CL$$btod_emul) refers (Special) to usenofp.o(x$fpl$usenofp) for __I$use$fp
    btod.o(CL$$btod_emul) refers to btod.o(CL$$btod_mult_common) for __btod_mult_common
    btod.o(CL$$btod_emul) refers to btod.o(CL$$btod_e2e) for _e2e
    btod.o(CL$$btod_ediv) refers (Special) to usenofp.o(x$fpl$usenofp) for __I$use$fp
    btod.o(CL$$btod_ediv) refers to btod.o(CL$$btod_div_common) for __btod_div_common
    btod.o(CL$$btod_ediv) refers to btod.o(CL$$btod_e2e) for _e2e
    btod.o(CL$$btod_emuld) refers (Special) to usenofp.o(x$fpl$usenofp) for __I$use$fp
    btod.o(CL$$btod_emuld) refers to btod.o(CL$$btod_mult_common) for __btod_mult_common
    btod.o(CL$$btod_emuld) refers to btod.o(CL$$btod_e2d) for _e2d
    btod.o(CL$$btod_edivd) refers (Special) to usenofp.o(x$fpl$usenofp) for __I$use$fp
    btod.o(CL$$btod_edivd) refers to btod.o(CL$$btod_div_common) for __btod_div_common
    btod.o(CL$$btod_edivd) refers to btod.o(CL$$btod_e2d) for _e2d
    btod.o(CL$$btod_e2e) refers (Special) to usenofp.o(x$fpl$usenofp) for __I$use$fp
    btod.o(CL$$btod_e2d) refers (Special) to usenofp.o(x$fpl$usenofp) for __I$use$fp
    btod.o(CL$$btod_e2d) refers to btod.o(CL$$btod_e2e) for _e2e
    btod.o(CL$$btod_mult_common) refers (Special) to usenofp.o(x$fpl$usenofp) for __I$use$fp
    btod.o(CL$$btod_div_common) refers (Special) to usenofp.o(x$fpl$usenofp) for __I$use$fp
    lc_numeric_c.o(locale$$data) refers (Special) to libinit2.o(.ARM.Collect$$libinit$$00000016) for __rt_lib_init_lc_numeric_2
    lc_numeric_c.o(locale$$code) refers (Special) to libinit2.o(.ARM.Collect$$libinit$$00000016) for __rt_lib_init_lc_numeric_2
    lc_numeric_c.o(locale$$code) refers to strcmpv7m.o(.text) for strcmp
    lc_numeric_c.o(locale$$code) refers to lc_numeric_c.o(locale$$data) for __lcnum_c_name
    exit.o(.text) refers to rtexit.o(.ARM.Collect$$rtexit$$00000000) for __rt_exit
    defsig_exit.o(.text) refers to sys_exit.o(.text) for _sys_exit
    defsig_rtmem_inner.o(.text) refers to defsig_general.o(.text) for __default_signal_display
    _get_argv_nomalloc.o(.text) refers (Special) to hrguard.o(.text) for __heap_region$guard
    _get_argv_nomalloc.o(.text) refers to defsig_rtmem_outer.o(.text) for __rt_SIGRTMEM
    _get_argv_nomalloc.o(.text) refers to sys_command.o(.text) for _sys_command_string
    libinit.o(.ARM.Collect$$libinit$$00000000) refers (Special) to libinit2.o(.ARM.Collect$$libinit$$0000002E) for __rt_lib_init_alloca_1
    libinit.o(.ARM.Collect$$libinit$$00000000) refers (Special) to libinit2.o(.ARM.Collect$$libinit$$0000002C) for __rt_lib_init_argv_1
    libinit.o(.ARM.Collect$$libinit$$00000000) refers (Special) to libinit2.o(.ARM.Collect$$libinit$$0000001B) for __rt_lib_init_atexit_1
    libinit.o(.ARM.Collect$$libinit$$00000000) refers (Special) to libinit2.o(.ARM.Collect$$libinit$$00000021) for __rt_lib_init_clock_1
    libinit.o(.ARM.Collect$$libinit$$00000000) refers (Special) to libinit2.o(.ARM.Collect$$libinit$$00000032) for __rt_lib_init_cpp_1
    libinit.o(.ARM.Collect$$libinit$$00000000) refers (Special) to libinit2.o(.ARM.Collect$$libinit$$00000030) for __rt_lib_init_exceptions_1
    libinit.o(.ARM.Collect$$libinit$$00000000) refers (Special) to libinit2.o(.ARM.Collect$$libinit$$00000002) for __rt_lib_init_fp_1
    libinit.o(.ARM.Collect$$libinit$$00000000) refers (Special) to libinit2.o(.ARM.Collect$$libinit$$0000001F) for __rt_lib_init_fp_trap_1
    libinit.o(.ARM.Collect$$libinit$$00000000) refers (Special) to libinit2.o(.ARM.Collect$$libinit$$00000023) for __rt_lib_init_getenv_1
    libinit.o(.ARM.Collect$$libinit$$00000000) refers (Special) to libinit2.o(.ARM.Collect$$libinit$$0000000A) for __rt_lib_init_heap_1
    libinit.o(.ARM.Collect$$libinit$$00000000) refers (Special) to libinit2.o(.ARM.Collect$$libinit$$00000011) for __rt_lib_init_lc_collate_1
    libinit.o(.ARM.Collect$$libinit$$00000000) refers (Special) to libinit2.o(.ARM.Collect$$libinit$$00000013) for __rt_lib_init_lc_ctype_1
    libinit.o(.ARM.Collect$$libinit$$00000000) refers (Special) to libinit2.o(.ARM.Collect$$libinit$$00000015) for __rt_lib_init_lc_monetary_1
    libinit.o(.ARM.Collect$$libinit$$00000000) refers (Special) to libinit2.o(.ARM.Collect$$libinit$$00000017) for __rt_lib_init_lc_numeric_1
    libinit.o(.ARM.Collect$$libinit$$00000000) refers (Special) to libinit2.o(.ARM.Collect$$libinit$$00000019) for __rt_lib_init_lc_time_1
    libinit.o(.ARM.Collect$$libinit$$00000000) refers (Special) to libinit2.o(.ARM.Collect$$libinit$$00000004) for __rt_lib_init_preinit_1
    libinit.o(.ARM.Collect$$libinit$$00000000) refers (Special) to libinit2.o(.ARM.Collect$$libinit$$0000000E) for __rt_lib_init_rand_1
    libinit.o(.ARM.Collect$$libinit$$00000000) refers (Special) to libinit2.o(.ARM.Collect$$libinit$$00000033) for __rt_lib_init_return
    libinit.o(.ARM.Collect$$libinit$$00000000) refers (Special) to libinit2.o(.ARM.Collect$$libinit$$0000001D) for __rt_lib_init_signal_1
    libinit.o(.ARM.Collect$$libinit$$00000000) refers (Special) to libinit2.o(.ARM.Collect$$libinit$$00000025) for __rt_lib_init_stdio_1
    libinit.o(.ARM.Collect$$libinit$$00000000) refers (Special) to libinit2.o(.ARM.Collect$$libinit$$0000000C) for __rt_lib_init_user_alloc_1
    istatus.o(x$fpl$ieeestatus) refers (Special) to usenofp.o(x$fpl$usenofp) for __I$use$fp
    fpclassify.o(i.__ARM_fpclassify) refers (Special) to usenofp.o(x$fpl$usenofp) for __I$use$fp
    sys_exit.o(.text) refers (Special) to use_no_semi.o(.text) for __I$use$semihosting
    sys_exit.o(.text) refers (Special) to indicate_semi.o(.text) for __semihosting_library_function
    rtexit.o(.ARM.Collect$$rtexit$$00000000) refers (Special) to rtexit2.o(.ARM.Collect$$rtexit$$00000004) for __rt_exit_exit
    rtexit.o(.ARM.Collect$$rtexit$$00000000) refers (Special) to rtexit2.o(.ARM.Collect$$rtexit$$00000003) for __rt_exit_ls
    rtexit.o(.ARM.Collect$$rtexit$$00000000) refers (Special) to rtexit2.o(.ARM.Collect$$rtexit$$00000002) for __rt_exit_prels_1
    rtexit.o(.ARM.exidx) refers (Special) to rtexit2.o(.ARM.Collect$$rtexit$$00000004) for __rt_exit_exit
    rtexit.o(.ARM.exidx) refers (Special) to rtexit2.o(.ARM.Collect$$rtexit$$00000003) for __rt_exit_ls
    rtexit.o(.ARM.exidx) refers (Special) to rtexit2.o(.ARM.Collect$$rtexit$$00000002) for __rt_exit_prels_1
    rtexit.o(.ARM.exidx) refers to rtexit.o(.ARM.Collect$$rtexit$$00000000) for .ARM.Collect$$rtexit$$00000000
    lc_ctype_c.o(locale$$data) refers (Special) to libinit2.o(.ARM.Collect$$libinit$$00000012) for __rt_lib_init_lc_ctype_2
    lc_ctype_c.o(locale$$code) refers (Special) to libinit2.o(.ARM.Collect$$libinit$$00000012) for __rt_lib_init_lc_ctype_2
    lc_ctype_c.o(locale$$code) refers to strcmpv7m.o(.text) for strcmp
    lc_ctype_c.o(locale$$code) refers to lc_ctype_c.o(locale$$data) for __lcctype_c_name
    __raise.o(.text) refers to defsig.o(CL$$defsig) for __default_signal_handler
    defsig_general.o(.text) refers to sys_wrch.o(.text) for _ttywrch
    defsig_fpe_outer.o(.text) refers to defsig_fpe_inner.o(.text) for __rt_SIGFPE_inner
    defsig_fpe_outer.o(.text) refers to defsig_exit.o(.text) for __sig_exit
    defsig_fpe_formal.o(.text) refers to rt_raise.o(.text) for __rt_raise
    libshutdown2.o(.ARM.Collect$$libshutdown$$0000000D) refers (Weak) to term_alloc.o(.text) for _terminate_alloc
    sys_wrch.o(.text) refers (Special) to use_no_semi.o(.text) for __I$use$semihosting
    sys_wrch.o(.text) refers (Special) to indicate_semi.o(.text) for __semihosting_library_function
    rtexit2.o(.ARM.Collect$$rtexit$$00000003) refers to libshutdown.o(.ARM.Collect$$libshutdown$$00000000) for __rt_lib_shutdown
    rtexit2.o(.ARM.Collect$$rtexit$$00000004) refers to sys_exit.o(.text) for _sys_exit
    rtexit2.o(.ARM.exidx) refers to rtexit2.o(.ARM.Collect$$rtexit$$00000001) for .ARM.Collect$$rtexit$$00000001
    rtexit2.o(.ARM.exidx) refers to rtexit2.o(.ARM.Collect$$rtexit$$00000003) for .ARM.Collect$$rtexit$$00000003
    rtexit2.o(.ARM.exidx) refers to rtexit2.o(.ARM.Collect$$rtexit$$00000004) for .ARM.Collect$$rtexit$$00000004
    defsig_fpe_inner.o(.text) refers to defsig_general.o(.text) for __default_signal_display
    defsig.o(CL$$defsig) refers to defsig_fpe_inner.o(.text) for __rt_SIGFPE_inner
    defsig.o(CL$$defsig) refers to defsig_rtmem_inner.o(.text) for __rt_SIGRTMEM_inner
    defsig_abrt_inner.o(.text) refers to defsig_general.o(.text) for __default_signal_display
    defsig_rtred_inner.o(.text) refers to defsig_general.o(.text) for __default_signal_display
    defsig_stak_inner.o(.text) refers to defsig_general.o(.text) for __default_signal_display
    defsig_pvfn_inner.o(.text) refers to defsig_general.o(.text) for __default_signal_display
    defsig_cppl_inner.o(.text) refers to defsig_general.o(.text) for __default_signal_display
    defsig_segv_inner.o(.text) refers to defsig_general.o(.text) for __default_signal_display
    defsig_other.o(.text) refers to defsig_general.o(.text) for __default_signal_display
    libshutdown.o(.ARM.Collect$$libshutdown$$00000000) refers (Special) to libshutdown2.o(.ARM.Collect$$libshutdown$$00000002) for __rt_lib_shutdown_cpp_1
    libshutdown.o(.ARM.Collect$$libshutdown$$00000000) refers (Special) to libshutdown2.o(.ARM.Collect$$libshutdown$$00000007) for __rt_lib_shutdown_fp_trap_1
    libshutdown.o(.ARM.Collect$$libshutdown$$00000000) refers (Special) to libshutdown2.o(.ARM.Collect$$libshutdown$$0000000F) for __rt_lib_shutdown_heap_1
    libshutdown.o(.ARM.Collect$$libshutdown$$00000000) refers (Special) to libshutdown2.o(.ARM.Collect$$libshutdown$$00000010) for __rt_lib_shutdown_return
    libshutdown.o(.ARM.Collect$$libshutdown$$00000000) refers (Special) to libshutdown2.o(.ARM.Collect$$libshutdown$$0000000A) for __rt_lib_shutdown_signal_1
    libshutdown.o(.ARM.Collect$$libshutdown$$00000000) refers (Special) to libshutdown2.o(.ARM.Collect$$libshutdown$$00000004) for __rt_lib_shutdown_stdio_1
    libshutdown.o(.ARM.Collect$$libshutdown$$00000000) refers (Special) to libshutdown2.o(.ARM.Collect$$libshutdown$$0000000C) for __rt_lib_shutdown_user_alloc_1


==============================================================================

Removing Unused input sections from the image.

    Removing main.o(.rev16_text), (4 bytes).
    Removing main.o(.revsh_text), (4 bytes).
    Removing dataflashapi.o(.text), (56 bytes).
    Removing key.o(.rev16_text), (4 bytes).
    Removing key.o(.revsh_text), (4 bytes).
    Removing led.o(.rev16_text), (4 bytes).
    Removing led.o(.revsh_text), (4 bytes).
    Removing motor.o(.rev16_text), (4 bytes).
    Removing motor.o(.revsh_text), (4 bytes).
    Removing fun_main.o(.rev16_text), (4 bytes).
    Removing fun_main.o(.revsh_text), (4 bytes).
    Removing bsp.o(.rev16_text), (4 bytes).
    Removing bsp.o(.revsh_text), (4 bytes).
    Removing audio.o(.rev16_text), (4 bytes).
    Removing audio.o(.revsh_text), (4 bytes).
    Removing rom_code_api.o(.rev16_text), (4 bytes).
    Removing rom_code_api.o(.revsh_text), (4 bytes).
    Removing rom_code_api.o(.text), (1020 bytes).
    Removing i2c_software_master.o(.rev16_text), (4 bytes).
    Removing i2c_software_master.o(.revsh_text), (4 bytes).
    Removing aud_driver.o(.rev16_text), (4 bytes).
    Removing aud_driver.o(.revsh_text), (4 bytes).
    Removing i2s4.o(.rev16_text), (4 bytes).
    Removing i2s4.o(.revsh_text), (4 bytes).
    Removing uart.o(.rev16_text), (4 bytes).
    Removing uart.o(.revsh_text), (4 bytes).
    Removing CSpotterSDKApi.o(i.CSpotter_GetMaxActiveState), (18 bytes).
    Removing CSpotterSDKApi.o(i.CSpotter_GetMemoryUsage_MultiWithExtRejModel), (22 bytes).
    Removing CSpotterSDKApi.o(i.CSpotter_GetMemoryUsage_MultiWithSpeaker), (22 bytes).
    Removing CSpotterSDKApi.o(i.CSpotter_GetMemoryUsage_Sep), (24 bytes).
    Removing CSpotterSDKApi.o(i.CSpotter_GetMemoryUsage_SepWithExtRejModel), (24 bytes).
    Removing CSpotterSDKApi.o(i.CSpotter_GetMemoryUsage_SepWithSpeaker), (24 bytes).
    Removing CSpotterSDKApi.o(i.CSpotter_GetMemoryUsage_SepWithSpeakerAndExtRejModel), (24 bytes).
    Removing CSpotterSDKApi.o(i.CSpotter_GetModelCmdReward), (76 bytes).
    Removing CSpotterSDKApi.o(i.CSpotter_GetNBestScore), (102 bytes).
    Removing CSpotterSDKApi.o(i.CSpotter_GetResultCmdModel), (120 bytes).
    Removing CSpotterSDKApi.o(i.CSpotter_GetResultEPD), (70 bytes).
    Removing CSpotterSDKApi.o(i.CSpotter_GetResultMapID), (108 bytes).
    Removing CSpotterSDKApi.o(i.CSpotter_GetResultScore), (64 bytes).
    Removing CSpotterSDKApi.o(i.CSpotter_GetSpeakerResult), (44 bytes).
    Removing CSpotterSDKApi.o(i.CSpotter_GetStateSize), (92 bytes).
    Removing CSpotterSDKApi.o(i.CSpotter_Init_Sep), (40 bytes).
    Removing CSpotterSDKApi.o(i.CSpotter_Init_SepWithExtRejModel), (38 bytes).
    Removing CSpotterSDKApi.o(i.CSpotter_IsActiveCmd), (48 bytes).
    Removing CSpotterSDKApi.o(i.CSpotter_IsVoiceActive), (28 bytes).
    Removing CSpotterSDKApi.o(i.CSpotter_Release), (38 bytes).
    Removing CSpotterSDKApi.o(i.CSpotter_SetCmdResponseOffset), (44 bytes).
    Removing CSpotterSDKApi.o(i.CSpotter_SetCmdResponseReward), (44 bytes).
    Removing CSpotterSDKApi.o(i.CSpotter_SetCmdReward), (44 bytes).
    Removing CSpotterSDKApi.o(i.CSpotter_SetCmdRewardOffset), (44 bytes).
    Removing CSpotterSDKApi.o(i.CSpotter_SetEnableNBest), (44 bytes).
    Removing CSpotterSDKApi.o(i.CSpotter_SetEnableRejectedResult), (44 bytes).
    Removing CSpotterSDKApi.o(i.CSpotter_SetEndStateRange), (44 bytes).
    Removing CSpotterSDKApi.o(i.CSpotter_SetFreqWarpFactor), (44 bytes).
    Removing CSpotterSDKApi.o(i.CSpotter_SetMinEnergyThreshd), (44 bytes).
    Removing CSpotterSDKApi.o(i.CSpotter_SetOLGarbThreshd), (44 bytes).
    Removing CSpotterSDKApi.o(i.CSpotter_SetPartialRejectLevel), (80 bytes).
    Removing CSpotterSDKApi.o(i.CSpotter_SetPartialRejectStateNum), (44 bytes).
    Removing CSpotterSDKApi.o(i.CSpotter_SetRejectedResultEnergyThreshd), (44 bytes).
    Removing CSpotterSDKApi.o(i.CSpotter_SetResponseTime), (44 bytes).
    Removing CSpotterSDKApi.o(i.CSpotter_SetResultMapID_Multi), (96 bytes).
    Removing CSpotterSDKApi.o(i.CSpotter_SetResultMapID_Sep), (36 bytes).
    Removing CSpotterSDKApi.o(i.CSpotter_SetSpeakerIdentLevel), (26 bytes).
    Removing CSpotterSDKApi.o(i.CSpotter_VerInfo), (12 bytes).
    Removing CSpotterSDKApi.o(.conststring), (84 bytes).
    Removing CSpotterSDKApi.o(.data), (4 bytes).
    Removing codec.o(.rev16_text), (4 bytes).
    Removing codec.o(.revsh_text), (4 bytes).
    Removing gpio.o(.rev16_text), (4 bytes).
    Removing gpio.o(.revsh_text), (4 bytes).
    Removing i2c.o(.rev16_text), (4 bytes).
    Removing i2c.o(.revsh_text), (4 bytes).
    Removing spifc.o(.rev16_text), (4 bytes).
    Removing spifc.o(.revsh_text), (4 bytes).
    Removing log_util.o(.rev16_text), (4 bytes).
    Removing log_util.o(.revsh_text), (4 bytes).
    Removing timer_pwm.o(.rev16_text), (4 bytes).
    Removing timer_pwm.o(.revsh_text), (4 bytes).
    Removing sar_adc.o(.rev16_text), (4 bytes).
    Removing sar_adc.o(.revsh_text), (4 bytes).
    Removing BsrAli.o(i.BsrJuan), (66 bytes).
    Removing BsrGo.o(i.NINJA_API_10), (32 bytes).
    Removing BsrGo.o(i.NINJA_API_12), (96 bytes).
    Removing BsrGo.o(i.NINJA_API_14), (434 bytes).
    Removing BsrGo.o(i.NINJA_API_16), (32 bytes).
    Removing BsrGo.o(i.NINJA_API_17), (44 bytes).
    Removing BsrGo.o(i.NINJA_API_18), (44 bytes).
    Removing BsrGo.o(i.NINJA_API_20), (32 bytes).
    Removing BsrGo.o(i.NINJA_API_22), (14 bytes).
    Removing BsrGo.o(i.NINJA_API_24), (32 bytes).
    Removing BsrGo.o(i.NINJA_API_25), (38 bytes).
    Removing BsrGo.o(i.NINJA_API_27), (30 bytes).
    Removing BsrGo.o(i.NINJA_API_28), (24 bytes).
    Removing BsrGo.o(i.NINJA_API_29), (24 bytes).
    Removing BsrGo.o(i.NINJA_API_30), (12 bytes).
    Removing BsrGo.o(i.NINJA_API_32), (10 bytes).
    Removing BsrGo.o(i.NINJA_API_33), (10 bytes).
    Removing BsrGo.o(i.NINJA_API_34), (10 bytes).
    Removing BsrGo.o(i.NINJA_API_35), (10 bytes).
    Removing BsrGo.o(i.NINJA_API_36), (10 bytes).
    Removing BsrGo.o(i.NINJA_API_38), (24 bytes).
    Removing BsrGo.o(i.NINJA_API_39), (40 bytes).
    Removing BsrGo.o(i.NINJA_API_40), (80 bytes).
    Removing BsrGo.o(i.NINJA_API_41), (10 bytes).
    Removing BsrGo.o(i.NINJA_API_42), (10 bytes).
    Removing BsrGo.o(i.NINJA_API_43), (82 bytes).
    Removing BsrGo.o(i.NINJA_API_44), (22 bytes).
    Removing BsrGo.o(i.NINJA_API_45), (24 bytes).
    Removing BsrGo.o(i.NINJA_API_46), (54 bytes).
    Removing BsrGo.o(i.NINJA_API_49), (38 bytes).
    Removing BsrGo.o(i.NINJA_API_50), (10 bytes).
    Removing BsrGo.o(i.NINJA_API_51), (10 bytes).
    Removing BsrGo.o(i.NINJA_API_52), (32 bytes).
    Removing BsrGo.o(i.NINJA_API_57), (22 bytes).
    Removing BsrGo.o(i.NINJA_API_58), (28 bytes).
    Removing BsrGo.o(i.NINJA_API_59), (10 bytes).
    Removing BsrGo.o(i.NINJA_API_62), (16 bytes).
    Removing BsrGo.o(i.NINJA_API_63), (16 bytes).
    Removing BsrGo.o(i.NINJA_API_64), (8 bytes).
    Removing BsrGo.o(i.NINJA_API_65), (30 bytes).
    Removing BsrGo.o(i.NINJA_API_66), (30 bytes).
    Removing BsrGo.o(i.NINJA_API_67), (32 bytes).
    Removing BsrGo.o(i.NINJA_API_68), (16 bytes).
    Removing BsrGo.o(i.NINJA_API_69), (32 bytes).
    Removing BsrGo.o(i.NINJA_API_70), (16 bytes).
    Removing BsrGo.o(i.NINJA_API_71), (32 bytes).
    Removing BsrGo.o(i.NINJA_API_72), (36 bytes).
    Removing BsrGo.o(i.NINJA_API_74), (24 bytes).
    Removing BsrGo.o(i.NINJA_API_78), (16 bytes).
    Removing BsrGo.o(i.NINJA_API_79), (16 bytes).
    Removing BsrGo.o(i.NINJA_API_8), (22 bytes).
    Removing BsrGo.o(i.NINJA_API_80), (16 bytes).
    Removing BsrGo.o(i.NINJA_API_9), (30 bytes).
    Removing BsrGo.o(.conststring), (82 bytes).
    Removing BsrGo.o(.data), (4 bytes).
    Removing CSpotterSDTrainApi.o(i.BsrLuther), (74 bytes).
    Removing CSpotterSDTrainApi.o(i.BsrLux), (624 bytes).
    Removing CSpotterSDTrainApi.o(i.CSpotterSD_AddSample), (268 bytes).
    Removing CSpotterSDTrainApi.o(i.CSpotterSD_AddUttrEnd), (128 bytes).
    Removing CSpotterSDTrainApi.o(i.CSpotterSD_AddUttrStart), (480 bytes).
    Removing CSpotterSDTrainApi.o(i.CSpotterSD_DeleteWord), (688 bytes).
    Removing CSpotterSDTrainApi.o(i.CSpotterSD_DifferenceCheck), (168 bytes).
    Removing CSpotterSDTrainApi.o(i.CSpotterSD_DifferenceCheckWithRejLevel), (156 bytes).
    Removing CSpotterSDTrainApi.o(i.CSpotterSD_GetCmdID), (136 bytes).
    Removing CSpotterSDTrainApi.o(i.CSpotterSD_GetMemoryUsage), (172 bytes).
    Removing CSpotterSDTrainApi.o(i.CSpotterSD_GetTagID), (140 bytes).
    Removing CSpotterSDTrainApi.o(i.CSpotterSD_GetUttrEPD), (80 bytes).
    Removing CSpotterSDTrainApi.o(i.CSpotterSD_Init), (368 bytes).
    Removing CSpotterSDTrainApi.o(i.CSpotterSD_IsoWordRecog), (344 bytes).
    Removing CSpotterSDTrainApi.o(i.CSpotterSD_Release), (12 bytes).
    Removing CSpotterSDTrainApi.o(i.CSpotterSD_Reset), (40 bytes).
    Removing CSpotterSDTrainApi.o(i.CSpotterSD_SetBackgroundEnergyThreshd), (40 bytes).
    Removing CSpotterSDTrainApi.o(i.CSpotterSD_SetEpdLevel), (40 bytes).
    Removing CSpotterSDTrainApi.o(i.CSpotterSD_SimilarityCheck), (188 bytes).
    Removing CSpotterSDTrainApi.o(i.CSpotterSD_SimilarityCheckWithRejLevel), (172 bytes).
    Removing CSpotterSDTrainApi.o(i.CSpotterSD_TrainWord), (1308 bytes).
    Removing CSpotterSDTrainApi.o(.constdata), (12 bytes).
    Removing CSpotterSDTrainApi.o(.constdata), (12 bytes).
    Removing i2s.o(.rev16_text), (4 bytes).
    Removing i2s.o(.revsh_text), (4 bytes).
    Removing idma.o(.rev16_text), (4 bytes).
    Removing idma.o(.revsh_text), (4 bytes).
    Removing BsrDon.o(i.BsrAndy), (24 bytes).
    Removing BsrDon.o(i.BsrAric), (12 bytes).
    Removing BsrDon.o(i.BsrAron), (12 bytes).
    Removing BsrDon.o(i.BsrAsha), (30 bytes).
    Removing BsrDon.o(i.BsrAsia), (30 bytes).
    Removing BsrDon.o(i.BsrAxel), (24 bytes).
    Removing BsrDon.o(i.BsrBeau), (20 bytes).
    Removing BsrDon.o(i.BsrBee), (12 bytes).
    Removing BsrDon.o(i.BsrBeth), (14 bytes).
    Removing BsrDon.o(i.BsrBill), (26 bytes).
    Removing BsrJim.o(i.BsrAve), (136 bytes).
    Removing BsrJim.o(i.BsrBeni), (36 bytes).
    Removing BsrJim.o(i.BsrEla), (16 bytes).
    Removing BsrJim.o(i.BsrEle), (158 bytes).
    Removing BsrJim.o(i.BsrEve), (16 bytes).
    Removing BsrJim.o(i.BsrIan), (150 bytes).
    Removing BsrJim.o(i.BsrJam), (14 bytes).
    Removing BsrJim.o(i.BsrJay), (14 bytes).
    Removing BsrJim.o(i.BsrJim), (16 bytes).
    Removing BsrJim.o(i.BsrJoe), (34 bytes).
    Removing BsrJim.o(i.BsrJoea), (80 bytes).
    Removing BsrJim.o(i.BsrJom), (38 bytes).
    Removing BsrJim.o(i.BsrJome), (14 bytes).
    Removing BsrJim.o(i.BsrJon), (54 bytes).
    Removing BsrJim.o(i.BsrJone), (14 bytes).
    Removing BsrJim.o(i.BsrJoy), (22 bytes).
    Removing BsrJim.o(i.BsrJoyce), (32 bytes).
    Removing BsrJim.o(i.BsrKab), (12 bytes).
    Removing BsrJim.o(i.BsrKae), (30 bytes).
    Removing BsrJim.o(i.BsrKai), (14 bytes).
    Removing BsrJim.o(i.BsrKia), (68 bytes).
    Removing BsrJim.o(i.BsrLea), (8 bytes).
    Removing BsrJim.o(i.BsrLee), (22 bytes).
    Removing BsrJim.o(i.BsrLeo), (20 bytes).
    Removing BsrJim.o(i.BsrLeonard), (50 bytes).
    Removing BsrJim.o(i.BsrLuz), (8 bytes).
    Removing BsrJim.o(i.BsrMax), (164 bytes).
    Removing BsrJim.o(i.BsrMaxi), (142 bytes).
    Removing BsrJim.o(i.BsrMickey), (130 bytes).
    Removing BsrJim.o(i.BsrMilton), (32 bytes).
    Removing BsrJim.o(i.BsrMonica), (78 bytes).
    Removing BsrJim.o(i.BsrMorris), (40 bytes).
    Removing BsrJoe.o(i.BsrAdan), (4 bytes).
    Removing BsrJoe.o(i.BsrAlan), (28 bytes).
    Removing BsrJoe.o(i.BsrAldo), (26 bytes).
    Removing BsrJoe.o(i.BsrAlec), (68 bytes).
    Removing BsrKai.o(i.BsrMia), (46 bytes).
    Removing BsrKai.o(i.BsrNoe), (22 bytes).
    Removing BsrKai.o(i.BsrNoei), (32 bytes).
    Removing BsrLea.o(i.BsrBret), (324 bytes).
    Removing BsrLea.o(i.SdAdam), (8 bytes).
    Removing BsrLea.o(i.SdAlan), (8 bytes).
    Removing BsrLea.o(i.SdAlbert), (284 bytes).
    Removing BsrLea.o(i.SdAldway), (214 bytes).
    Removing BsrLea.o(i.SdAlexander), (8 bytes).
    Removing BsrLea.o(i.SdAlfred), (34 bytes).
    Removing BsrLea.o(i.SdAllison), (100 bytes).
    Removing BsrLea.o(i.SdAman), (60 bytes).
    Removing BsrLea.o(i.SdAmanda), (70 bytes).
    Removing BsrLea.o(i.SdAmber), (80 bytes).
    Removing BsrLea.o(i.SdAmbra), (672 bytes).
    Removing BsrLea.o(i.SdAmy), (56 bytes).
    Removing BsrLea.o(i.SdAna), (130 bytes).
    Removing BsrLea.o(i.SdAnahi), (48 bytes).
    Removing BsrLea.o(i.SdAnahita), (48 bytes).
    Removing BsrLea.o(i.SdAndrew), (300 bytes).
    Removing BsrLea.o(i.SdAndy), (22 bytes).
    Removing BsrLea.o(i.SdAngela), (60 bytes).
    Removing BsrLea.o(i.SdAngelica), (16 bytes).
    Removing BsrLea.o(i.SdAngelina), (8 bytes).
    Removing BsrLea.o(i.SdAngeline), (38 bytes).
    Removing BsrLea.o(i.SdAnita), (54 bytes).
    Removing BsrLea.o(i.SdAnite), (14 bytes).
    Removing BsrLea.o(i.SdAnja), (32 bytes).
    Removing BsrLea.o(i.SdAnka), (14 bytes).
    Removing BsrLea.o(i.SdAraminta), (200 bytes).
    Removing BsrLea.o(i.SdArathorn), (26 bytes).
    Removing BsrLea.o(i.SdArch), (80 bytes).
    Removing BsrLea.o(i.SdArcher), (78 bytes).
    Removing BsrLea.o(i.SdArchie), (54 bytes).
    Removing BsrLea.o(i.SdDorothy), (202 bytes).
    Removing BsrMax.o(i.SdDora), (596 bytes).
    Removing BsrMax.o(i.SdEmily), (146 bytes).
    Removing BsrRay.o(i.SDTrainer_AbortTrain), (32 bytes).
    Removing BsrRay.o(i.SdEva), (98 bytes).
    Removing BsrRay.o(i.SdFernando), (68 bytes).
    Removing BsrRay.o(i.SdFrancis), (112 bytes).
    Removing BsrRay.o(i.SdFrank), (40 bytes).
    Removing BsrRay.o(i.SdFranklin), (420 bytes).
    Removing BsrRay.o(i.SdFred), (18 bytes).
    Removing BsrRay.o(i.SdGary), (60 bytes).
    Removing BsrRay.o(i.SdGeorge), (34 bytes).
    Removing BsrRay.o(i.SdGilbert), (228 bytes).
    Removing BsrRay.o(i.SdGina), (400 bytes).
    Removing BsrRay.o(.constdata), (12 bytes).
    Removing BsrRay.o(.data), (16 bytes).
    Removing BsrRex.o(i.SdAntonio), (276 bytes).
    Removing BsrRex.o(i.SdApril), (698 bytes).
    Removing BsrRex.o(i.SdArthur), (52 bytes).
    Removing BsrRex.o(i.SdArthur_1), (72 bytes).
    Removing BsrRex.o(i.SdArtturi), (14 bytes).
    Removing BsrRex.o(i.SdArvid), (12 bytes).
    Removing BsrRex.o(i.SdArvin), (14 bytes).
    Removing BsrRex.o(i.SdAshley), (64 bytes).
    Removing BsrRex.o(i.SdBarbara), (30 bytes).
    Removing BsrRex.o(i.SdBarry), (74 bytes).
    Removing BsrRex.o(i.SdBecky), (40 bytes).
    Removing BsrJoy.o(i.BsrCruz), (36 bytes).
    Removing BsrJoy.o(i.BsrDale), (20 bytes).
    Removing BsrJoy.o(i.BsrDana), (92 bytes).
    Removing BsrJoy.o(i.BsrDara), (8 bytes).
    Removing BsrJoy.o(i.BsrDrew), (8 bytes).
    Removing BsrLuz.o(i.SdDavid), (1570 bytes).
    Removing BsrLuz.o(i.SdEmily), (216 bytes).
    Removing BsrLuz.o(i.SdErik), (712 bytes).
    Removing BsrLuz.o(.constdata), (28 bytes).
    Removing BsrAna.o(i.BsrGene), (264 bytes).
    Removing BsrAnn.o(i.BsrHali), (568 bytes).
    Removing BsrAnn.o(i.BsrHans), (180 bytes).
    Removing BsrAnn.o(i.BsrHope), (180 bytes).
    Removing BsrMia.o(i.SdAnna), (4 bytes).
    Removing BsrMia.o(i.SdAnnie), (8 bytes).
    Removing BsrMia.o(i.SdBrandon), (136 bytes).
    Removing BsrMia.o(i.SdBruce), (20 bytes).
    Removing BsrMia.o(i.SdBryan), (10 bytes).
    Removing BsrMia.o(i.SdCarmen), (512 bytes).
    Removing BsrMia.o(i.SdCarol), (72 bytes).
    Removing BsrMia.o(i.SdCarolyn), (38 bytes).
    Removing BsrMia.o(i.SdCarrie), (108 bytes).
    Removing BsrMia.o(i.SdCathy), (40 bytes).
    Removing BsrMia.o(i.SdCharles), (108 bytes).
    Removing BsrMia.o(i.SdChris), (46 bytes).
    Removing BsrMia.o(i.SdChristina), (12 bytes).
    Removing BsrMia.o(i.SdChristopher), (132 bytes).
    Removing BsrMia.o(i.SdCindy), (34 bytes).
    Removing BsrMia.o(i.SdCody), (30 bytes).
    Removing BsrMia.o(i.SdConnie), (92 bytes).
    Removing BsrMia.o(i.SdConstance), (24 bytes).
    Removing BsrNia.o(i.SdEdward), (324 bytes).
    Removing BsrNia.o(i.SdEdwin), (856 bytes).
    Removing BsrNoe.o(i.SdDanny), (1050 bytes).
    Removing BsrMya.o(i.SdBobby), (168 bytes).
    Removing BsrMya.o(i.SdCrystal), (40 bytes).
    Removing BsrMya.o(i.SdDaisy), (44 bytes).
    Removing BsrMya.o(.constdata), (592 bytes).

307 unused section(s) (total 28246 bytes) removed from the image.

==============================================================================

Adding Veneers to the image

    Adding TT veneer (10 bytes, Long) for call to 'AUD_RegWrite' from main.o(.text).
    Adding TT veneer (10 bytes, Long) for call to 'AUD_RegRead' from main.o(.text).
    Adding TT veneer (10 bytes, Long) for call to 'setting_pwm' from main.o(.text).
    Adding TT veneer (10 bytes, Long) for call to 'is_start_motor' from main.o(.text).
    Adding TT veneer (10 bytes, Long) for call to 'get_motor_level' from main.o(.text).
    Adding TT veneer (10 bytes, Long) for call to 'SNX_AGC_Process' from main.o(.text).
    Adding TT veneer (10 bytes, Long) for call to 'SNX_AGC_Process_init' from main.o(.text).
    Adding TT veneer (10 bytes, Long) for call to 'External_Audio_Codec_Init' from main.o(.text).
    Adding TT veneer (10 bytes, Long) for call to 'AUD01_ADC_Gain_Ctrl' from main.o(.text).
    Adding TT veneer (10 bytes, Long) for call to 'Convert_to_Codec_Channel' from main.o(.text).
    Adding TT veneer (10 bytes, Long) for call to 'Convert_to_Codec_Sampling_Rate' from main.o(.text).
    Adding TT veneer (10 bytes, Long) for call to 'I2S4_Init' from main.o(.text).
    Adding TT veneer (10 bytes, Long) for call to 'fun_main' from main.o(.text).
    Adding TT veneer (10 bytes, Long) for call to 'interrupt_service' from main.o(.text).
    Adding TT veneer (10 bytes, Long) for call to 'UART_Init' from log_util.o(.text).
    Adding TT veneer (10 bytes, Long) for call to 'UART_WriteByte' from log_util.o(.text).
    Adding TT veneer (10 bytes, Long) for call to '__aeabi_i2d' from snx_audio_agc.o(.text).
    Adding TT veneer (10 bytes, Long) for call to '__aeabi_dmul' from snx_audio_agc.o(.text).
    Adding TT veneer (10 bytes, Long) for call to '__aeabi_cdcmple' from snx_audio_agc.o(.text).
    Adding TT veneer (10 bytes, Long) for call to '__aeabi_i2f' from snx_audio_agc.o(.text).
    Adding TT veneer (10 bytes, Long) for call to '__aeabi_f2d' from snx_audio_agc.o(.text).
    Adding TT veneer (10 bytes, Long) for call to '__aeabi_d2iz' from snx_audio_agc.o(.text).
    Adding TT veneer (10 bytes, Long) for call to '__aeabi_ddiv' from snx_audio_agc.o(.text).
    Adding TT veneer (10 bytes, Long) for call to 'GPIO_SetPin' from key.o(.text).
    Adding TT veneer (10 bytes, Long) for call to 'GPIO_GetPin' from key.o(.text).
    Adding TT veneer (10 bytes, Long) for call to 'GPIO_Irq_GetPinIrq' from motor.o(.text).
    Adding TT veneer (10 bytes, Long) for call to 'GPIO_Irq_ClearPinIrq' from motor.o(.text).
    Adding TT veneer (10 bytes, Long) for call to 'GPIO_Irq_Deinit' from motor.o(.text).
    Adding TT veneer (10 bytes, Long) for call to 'TimerPwm_Reset' from motor.o(.text).
    Adding TT veneer (10 bytes, Long) for call to 'Timer_Launch' from motor.o(.text).
    Adding TT veneer (10 bytes, Long) for call to 'GPIO_Irq_Init' from motor.o(.text).
    Adding TT veneer (10 bytes, Long) for call to 'GPIO_Irq_SetPin' from motor.o(.text).
    Adding TT veneer (10 bytes, Long) for call to 'SAR_ADC_init' from fun_main.o(.text).
    Adding TT veneer (10 bytes, Long) for call to 'SAR_ADC_Enable' from fun_main.o(.text).
    Adding TT veneer (10 bytes, Long) for call to 'SAR_ADC_Start' from fun_main.o(.text).
    Adding TT veneer (10 bytes, Long) for call to 'I2C_Master_Send' from aud_driver.o(.text).
    Adding TT veneer (10 bytes, Long) for call to 'I2C_Set_Stop_Condition' from aud_driver.o(.text).
    Adding TT veneer (10 bytes, Long) for call to 'I2C_Master_Recv' from aud_driver.o(.text).
    Adding TT veneer (10 bytes, Long) for call to 'I2C_Initial' from aud_driver.o(.text).
    Adding TT veneer (10 bytes, Long) for call to '__aeabi_memclr' from aud_driver.o(.text).
    Adding TT veneer (10 bytes, Long) for call to 'printf_uart' from aud_driver.o(.text).

41 Veneer(s) (total 410 bytes) added to the image.

==============================================================================

Image Symbol Table

    Local Symbols

    Symbol Name                              Value     Ov Type        Size  Object(Section)

    RESET                                    0x00000000   Section      292  startup.o(RESET)
    ../clib/angel/boardlib.s                 0x00000000   Number         0  boardinit2.o ABSOLUTE
    ../clib/angel/boardlib.s                 0x00000000   Number         0  boardshut.o ABSOLUTE
    ../clib/angel/boardlib.s                 0x00000000   Number         0  boardinit1.o ABSOLUTE
    ../clib/angel/boardlib.s                 0x00000000   Number         0  boardinit3.o ABSOLUTE
    ../clib/angel/handlers.s                 0x00000000   Number         0  __scatter_copy.o ABSOLUTE
    ../clib/angel/handlers.s                 0x00000000   Number         0  __scatter_zi.o ABSOLUTE
    ../clib/angel/kernel.s                   0x00000000   Number         0  __rtentry.o ABSOLUTE
    ../clib/angel/kernel.s                   0x00000000   Number         0  rtexit.o ABSOLUTE
    ../clib/angel/kernel.s                   0x00000000   Number         0  __rtentry2.o ABSOLUTE
    ../clib/angel/kernel.s                   0x00000000   Number         0  __rtentry4.o ABSOLUTE
    ../clib/angel/kernel.s                   0x00000000   Number         0  rtexit2.o ABSOLUTE
    ../clib/angel/rt.s                       0x00000000   Number         0  rt_div0.o ABSOLUTE
    ../clib/angel/rt.s                       0x00000000   Number         0  rt_locale_intlibspace.o ABSOLUTE
    ../clib/angel/rt.s                       0x00000000   Number         0  rt_locale.o ABSOLUTE
    ../clib/angel/rt.s                       0x00000000   Number         0  rt_raise.o ABSOLUTE
    ../clib/angel/rt.s                       0x00000000   Number         0  aeabi_ldiv0_sigfpe.o ABSOLUTE
    ../clib/angel/rt.s                       0x00000000   Number         0  rt_ctype_table.o ABSOLUTE
    ../clib/angel/rt.s                       0x00000000   Number         0  rt_heap_descriptor_intlibspace.o ABSOLUTE
    ../clib/angel/rt.s                       0x00000000   Number         0  rt_heap_descriptor.o ABSOLUTE
    ../clib/angel/rt.s                       0x00000000   Number         0  aeabi_ldiv0.o ABSOLUTE
    ../clib/angel/scatter.s                  0x00000000   Number         0  __scatter.o ABSOLUTE
    ../clib/angel/startup.s                  0x00000000   Number         0  __main.o ABSOLUTE
    ../clib/angel/sys.s                      0x00000000   Number         0  libspace.o ABSOLUTE
    ../clib/angel/sys.s                      0x00000000   Number         0  sys_stackheap_outer.o ABSOLUTE
    ../clib/angel/sys.s                      0x00000000   Number         0  use_no_semi.o ABSOLUTE
    ../clib/angel/sys.s                      0x00000000   Number         0  mutex_dummy.o ABSOLUTE
    ../clib/angel/sys.s                      0x00000000   Number         0  indicate_semi.o ABSOLUTE
    ../clib/angel/sysapp.c                   0x00000000   Number         0  sys_wrch.o ABSOLUTE
    ../clib/angel/sysapp.c                   0x00000000   Number         0  sys_exit.o ABSOLUTE
    ../clib/angel/sysapp.c                   0x00000000   Number         0  sys_command.o ABSOLUTE
    ../clib/armsys.c                         0x00000000   Number         0  _get_argv_nomalloc.o ABSOLUTE
    ../clib/armsys.c                         0x00000000   Number         0  no_argv.o ABSOLUTE
    ../clib/armsys.c                         0x00000000   Number         0  argv_veneer.o ABSOLUTE
    ../clib/armsys.c                         0x00000000   Number         0  _get_argv.o ABSOLUTE
    ../clib/armsys.c                         0x00000000   Number         0  argv_veneer.o ABSOLUTE
    ../clib/bigflt.c                         0x00000000   Number         0  bigflt0.o ABSOLUTE
    ../clib/btod.s                           0x00000000   Number         0  btod.o ABSOLUTE
    ../clib/heap1.c                          0x00000000   Number         0  h1_init_mt.o ABSOLUTE
    ../clib/heap1.c                          0x00000000   Number         0  h1_init.o ABSOLUTE
    ../clib/heap1.c                          0x00000000   Number         0  h1_extend.o ABSOLUTE
    ../clib/heap1.c                          0x00000000   Number         0  h1_alloc_mt.o ABSOLUTE
    ../clib/heap1.c                          0x00000000   Number         0  h1_final_mt.o ABSOLUTE
    ../clib/heap1.c                          0x00000000   Number         0  h1_final.o ABSOLUTE
    ../clib/heap1.c                          0x00000000   Number         0  h1_extend_mt.o ABSOLUTE
    ../clib/heap1.c                          0x00000000   Number         0  h1_alloc.o ABSOLUTE
    ../clib/heap1.c                          0x00000000   Number         0  h1_free_mt.o ABSOLUTE
    ../clib/heap1.c                          0x00000000   Number         0  h1_free.o ABSOLUTE
    ../clib/heap2.c                          0x00000000   Number         0  fdtree.o ABSOLUTE
    ../clib/heap2.c                          0x00000000   Number         0  heap2mt.o ABSOLUTE
    ../clib/heap2.c                          0x00000000   Number         0  heap2.o ABSOLUTE
    ../clib/heapalloc.c                      0x00000000   Number         0  init_alloc.o ABSOLUTE
    ../clib/heapalloc.c                      0x00000000   Number         0  hguard.o ABSOLUTE
    ../clib/heapalloc.c                      0x00000000   Number         0  hrguard.o ABSOLUTE
    ../clib/heapalloc.c                      0x00000000   Number         0  maybetermalloc1.o ABSOLUTE
    ../clib/heapalloc.c                      0x00000000   Number         0  maybetermalloc1.o ABSOLUTE
    ../clib/heapalloc.c                      0x00000000   Number         0  maybetermalloc2.o ABSOLUTE
    ../clib/heapalloc.c                      0x00000000   Number         0  maybetermalloc2.o ABSOLUTE
    ../clib/heapalloc.c                      0x00000000   Number         0  free.o ABSOLUTE
    ../clib/heapalloc.c                      0x00000000   Number         0  malloc.o ABSOLUTE
    ../clib/heapalloc.c                      0x00000000   Number         0  term_alloc.o ABSOLUTE
    ../clib/heapalloc.c                      0x00000000   Number         0  heapstubs.o ABSOLUTE
    ../clib/heapaux.c                        0x00000000   Number         0  heapauxa.o ABSOLUTE
    ../clib/heapaux.c                        0x00000000   Number         0  heapauxi.o ABSOLUTE
    ../clib/libinit.s                        0x00000000   Number         0  libinit2.o ABSOLUTE
    ../clib/libinit.s                        0x00000000   Number         0  libshutdown.o ABSOLUTE
    ../clib/libinit.s                        0x00000000   Number         0  libshutdown2.o ABSOLUTE
    ../clib/libinit.s                        0x00000000   Number         0  libinit.o ABSOLUTE
    ../clib/locale.c                         0x00000000   Number         0  _wcrtomb.o ABSOLUTE
    ../clib/locale.s                         0x00000000   Number         0  lc_ctype_c.o ABSOLUTE
    ../clib/locale.s                         0x00000000   Number         0  lc_numeric_c.o ABSOLUTE
    ../clib/longlong.s                       0x00000000   Number         0  lludivv7m.o ABSOLUTE
    ../clib/longlong.s                       0x00000000   Number         0  llshl.o ABSOLUTE
    ../clib/longlong.s                       0x00000000   Number         0  llsshr.o ABSOLUTE
    ../clib/longlong.s                       0x00000000   Number         0  llsdiv.o ABSOLUTE
    ../clib/longlong.s                       0x00000000   Number         0  lludiv10.o ABSOLUTE
    ../clib/memcpset.s                       0x00000000   Number         0  rt_memclr_w.o ABSOLUTE
    ../clib/memcpset.s                       0x00000000   Number         0  rt_memcpy_v6.o ABSOLUTE
    ../clib/memcpset.s                       0x00000000   Number         0  rt_memcpy_w.o ABSOLUTE
    ../clib/memcpset.s                       0x00000000   Number         0  aeabi_memset.o ABSOLUTE
    ../clib/memcpset.s                       0x00000000   Number         0  rt_memclr.o ABSOLUTE
    ../clib/memcpset.s                       0x00000000   Number         0  strcmpv7m.o ABSOLUTE
    ../clib/misc.s                           0x00000000   Number         0  printf_stubs.o ABSOLUTE
    ../clib/printf.c                         0x00000000   Number         0  __printf_flags_wp.o ABSOLUTE
    ../clib/printf.c                         0x00000000   Number         0  __printf_wp.o ABSOLUTE
    ../clib/printf.c                         0x00000000   Number         0  _printf_wctomb.o ABSOLUTE
    ../clib/printf.c                         0x00000000   Number         0  __printf_flags_ss.o ABSOLUTE
    ../clib/printf.c                         0x00000000   Number         0  _printf_hex_int_ll_ptr.o ABSOLUTE
    ../clib/printf.c                         0x00000000   Number         0  __printf_ss.o ABSOLUTE
    ../clib/printf.c                         0x00000000   Number         0  __printf_flags.o ABSOLUTE
    ../clib/printf.c                         0x00000000   Number         0  _printf_hex_ll_ptr.o ABSOLUTE
    ../clib/printf.c                         0x00000000   Number         0  _printf_hex_int_ptr.o ABSOLUTE
    ../clib/printf.c                         0x00000000   Number         0  _printf_fp_hex.o ABSOLUTE
    ../clib/printf.c                         0x00000000   Number         0  __printf_nopercent.o ABSOLUTE
    ../clib/printf.c                         0x00000000   Number         0  _printf_hex_ptr.o ABSOLUTE
    ../clib/printf.c                         0x00000000   Number         0  _printf_hex_int_ll.o ABSOLUTE
    ../clib/printf.c                         0x00000000   Number         0  __printf.o ABSOLUTE
    ../clib/printf.c                         0x00000000   Number         0  _printf_fp_infnan.o ABSOLUTE
    ../clib/printf.c                         0x00000000   Number         0  _printf_hex_int.o ABSOLUTE
    ../clib/printf.c                         0x00000000   Number         0  _printf_hex_ll.o ABSOLUTE
    ../clib/printf.c                         0x00000000   Number         0  _printf_char.o ABSOLUTE
    ../clib/printf.c                         0x00000000   Number         0  _printf_oct_int_ll.o ABSOLUTE
    ../clib/printf.c                         0x00000000   Number         0  _printf_oct_int.o ABSOLUTE
    ../clib/printf.c                         0x00000000   Number         0  _printf_oct_ll.o ABSOLUTE
    ../clib/printf.c                         0x00000000   Number         0  vsnprintf.o ABSOLUTE
    ../clib/printf.c                         0x00000000   Number         0  _printf_intcommon.o ABSOLUTE
    ../clib/printf.c                         0x00000000   Number         0  _printf_wchar.o ABSOLUTE
    ../clib/printf.c                         0x00000000   Number         0  _printf_longlong_dec.o ABSOLUTE
    ../clib/printf.c                         0x00000000   Number         0  _printf_fp_dec.o ABSOLUTE
    ../clib/printf.c                         0x00000000   Number         0  __printf_flags_ss_wp.o ABSOLUTE
    ../clib/printf.c                         0x00000000   Number         0  _snputc.o ABSOLUTE
    ../clib/printf.c                         0x00000000   Number         0  _sputc.o ABSOLUTE
    ../clib/printf.c                         0x00000000   Number         0  __printf_ss_wp.o ABSOLUTE
    ../clib/printf.c                         0x00000000   Number         0  _printf_char_common.o ABSOLUTE
    ../clib/printf.c                         0x00000000   Number         0  _printf_charcount.o ABSOLUTE
    ../clib/printf.c                         0x00000000   Number         0  _printf_dec.o ABSOLUTE
    ../clib/printf.c                         0x00000000   Number         0  _printf_str.o ABSOLUTE
    ../clib/printf.c                         0x00000000   Number         0  _printf_truncate.o ABSOLUTE
    ../clib/printf.c                         0x00000000   Number         0  _printf_pad.o ABSOLUTE
    ../clib/printf_percent.s                 0x00000000   Number         0  _printf_l.o ABSOLUTE
    ../clib/printf_percent.s                 0x00000000   Number         0  _printf_ll.o ABSOLUTE
    ../clib/printf_percent.s                 0x00000000   Number         0  _printf_llu.o ABSOLUTE
    ../clib/printf_percent.s                 0x00000000   Number         0  _printf_lld.o ABSOLUTE
    ../clib/printf_percent.s                 0x00000000   Number         0  _printf_lli.o ABSOLUTE
    ../clib/printf_percent.s                 0x00000000   Number         0  _printf_percent.o ABSOLUTE
    ../clib/printf_percent.s                 0x00000000   Number         0  _printf_a.o ABSOLUTE
    ../clib/printf_percent.s                 0x00000000   Number         0  _printf_g.o ABSOLUTE
    ../clib/printf_percent.s                 0x00000000   Number         0  _printf_e.o ABSOLUTE
    ../clib/printf_percent.s                 0x00000000   Number         0  _printf_f.o ABSOLUTE
    ../clib/printf_percent.s                 0x00000000   Number         0  _printf_u.o ABSOLUTE
    ../clib/printf_percent.s                 0x00000000   Number         0  _printf_d.o ABSOLUTE
    ../clib/printf_percent.s                 0x00000000   Number         0  _printf_i.o ABSOLUTE
    ../clib/printf_percent.s                 0x00000000   Number         0  _printf_o.o ABSOLUTE
    ../clib/printf_percent.s                 0x00000000   Number         0  _printf_p.o ABSOLUTE
    ../clib/printf_percent.s                 0x00000000   Number         0  _printf_x.o ABSOLUTE
    ../clib/printf_percent.s                 0x00000000   Number         0  _printf_n.o ABSOLUTE
    ../clib/printf_percent.s                 0x00000000   Number         0  _printf_c.o ABSOLUTE
    ../clib/printf_percent.s                 0x00000000   Number         0  _printf_s.o ABSOLUTE
    ../clib/printf_percent.s                 0x00000000   Number         0  _printf_percent_end.o ABSOLUTE
    ../clib/printf_percent.s                 0x00000000   Number         0  _printf_llx.o ABSOLUTE
    ../clib/printf_percent.s                 0x00000000   Number         0  _printf_llo.o ABSOLUTE
    ../clib/printf_percent.s                 0x00000000   Number         0  _printf_ls.o ABSOLUTE
    ../clib/printf_percent.s                 0x00000000   Number         0  _printf_lc.o ABSOLUTE
    ../clib/signal.c                         0x00000000   Number         0  defsig_segv_inner.o ABSOLUTE
    ../clib/signal.c                         0x00000000   Number         0  defsig_rtmem_outer.o ABSOLUTE
    ../clib/signal.c                         0x00000000   Number         0  defsig_other.o ABSOLUTE
    ../clib/signal.c                         0x00000000   Number         0  defsig_fpe_inner.o ABSOLUTE
    ../clib/signal.c                         0x00000000   Number         0  defsig_fpe_outer.o ABSOLUTE
    ../clib/signal.c                         0x00000000   Number         0  defsig_exit.o ABSOLUTE
    ../clib/signal.c                         0x00000000   Number         0  defsig_abrt_inner.o ABSOLUTE
    ../clib/signal.c                         0x00000000   Number         0  defsig_stak_inner.o ABSOLUTE
    ../clib/signal.c                         0x00000000   Number         0  defsig_rtmem_inner.o ABSOLUTE
    ../clib/signal.c                         0x00000000   Number         0  defsig_rtmem_formal.o ABSOLUTE
    ../clib/signal.c                         0x00000000   Number         0  defsig_general.o ABSOLUTE
    ../clib/signal.c                         0x00000000   Number         0  defsig_rtred_inner.o ABSOLUTE
    ../clib/signal.c                         0x00000000   Number         0  defsig_fpe_formal.o ABSOLUTE
    ../clib/signal.c                         0x00000000   Number         0  __raise.o ABSOLUTE
    ../clib/signal.c                         0x00000000   Number         0  defsig_pvfn_inner.o ABSOLUTE
    ../clib/signal.c                         0x00000000   Number         0  defsig_cppl_inner.o ABSOLUTE
    ../clib/signal.s                         0x00000000   Number         0  defsig.o ABSOLUTE
    ../clib/stdlib.c                         0x00000000   Number         0  exit.o ABSOLUTE
    ../fplib/dcmpi.s                         0x00000000   Number         0  dcmpi.o ABSOLUTE
    ../fplib/ddiv.s                          0x00000000   Number         0  ddiv.o ABSOLUTE
    ../fplib/dfix.s                          0x00000000   Number         0  dfix.o ABSOLUTE
    ../fplib/dflt.s                          0x00000000   Number         0  dflt_clz.o ABSOLUTE
    ../fplib/dleqf.s                         0x00000000   Number         0  dleqf.o ABSOLUTE
    ../fplib/dmul.s                          0x00000000   Number         0  dmul.o ABSOLUTE
    ../fplib/dnaninf.s                       0x00000000   Number         0  dnaninf.o ABSOLUTE
    ../fplib/dretinf.s                       0x00000000   Number         0  dretinf.o ABSOLUTE
    ../fplib/f2d.s                           0x00000000   Number         0  f2d.o ABSOLUTE
    ../fplib/fflt.s                          0x00000000   Number         0  fflt_clz.o ABSOLUTE
    ../fplib/fnaninf.s                       0x00000000   Number         0  fnaninf.o ABSOLUTE
    ../fplib/fpinit.s                        0x00000000   Number         0  fpinit.o ABSOLUTE
    ../fplib/istatus.s                       0x00000000   Number         0  istatus.o ABSOLUTE
    ../fplib/printf1.s                       0x00000000   Number         0  printf1.o ABSOLUTE
    ../fplib/printf2.s                       0x00000000   Number         0  printf2.o ABSOLUTE
    ../fplib/printf2a.s                      0x00000000   Number         0  printf2a.o ABSOLUTE
    ../fplib/printf2b.s                      0x00000000   Number         0  printf2b.o ABSOLUTE
    ../fplib/usenofp.s                       0x00000000   Number         0  usenofp.o ABSOLUTE
    ../mathlib/fpclassify.c                  0x00000000   Number         0  fpclassify.o ABSOLUTE
    ..\..\..\..\..\bsp\bsp.c                 0x00000000   Number         0  bsp.o ABSOLUTE
    ..\..\..\..\..\bsp\sonix_load_table.c    0x00000000   Number         0  sonix_load_table.o ABSOLUTE
    ..\..\..\..\..\bsp\startup.s             0x00000000   Number         0  startup.o ABSOLUTE
    ..\..\..\..\..\project\sample\audio32_demo\core_0\CSpotter\DataFlashApi.c 0x00000000   Number         0  dataflashapi.o ABSOLUTE
    ..\..\..\..\..\project\sample\audio32_demo\core_0\fun_main.c 0x00000000   Number         0  fun_main.o ABSOLUTE
    ..\..\..\..\..\project\sample\audio32_demo\core_0\key.c 0x00000000   Number         0  key.o ABSOLUTE
    ..\..\..\..\..\project\sample\audio32_demo\core_0\led.c 0x00000000   Number         0  led.o ABSOLUTE
    ..\..\..\..\..\project\sample\audio32_demo\core_0\main.c 0x00000000   Number         0  main.o ABSOLUTE
    ..\..\..\..\..\project\sample\audio32_demo\core_0\motor.c 0x00000000   Number         0  motor.o ABSOLUTE
    ..\..\..\..\..\project\sample\audio32_demo\core_0\snx_audio_agc.c 0x00000000   Number         0  snx_audio_agc.o ABSOLUTE
    ..\..\..\..\..\project\sample\audio32_demo\core_0\vr\rd_wr_flash.s 0x00000000   Number         0  rd_wr_flash.o ABSOLUTE
    ..\..\..\..\..\sdk\driver\i2s\i2s4.c     0x00000000   Number         0  i2s4.o ABSOLUTE
    ..\..\..\..\..\sdk\driver\uart\uart.c    0x00000000   Number         0  uart.o ABSOLUTE
    ..\..\..\..\..\sdk\share\sonix\audio\audio.c 0x00000000   Number         0  audio.o ABSOLUTE
    ..\..\..\..\..\sdk\share\sonix\audio\rom_code_api.c 0x00000000   Number         0  rom_code_api.o ABSOLUTE
    ..\..\..\..\..\sdk\share\sonix\sw_i2c\I2C_Software_Master.c 0x00000000   Number         0  i2c_software_master.o ABSOLUTE
    ..\..\..\..\..\sdk\share\thirdparty\aud_driver\aud_driver.c 0x00000000   Number         0  aud_driver.o ABSOLUTE
    ..\..\..\..\sdk\driver\codec\codec.c     0x00000000   Number         0  codec.o ABSOLUTE
    ..\..\..\..\sdk\driver\gpio\gpio.c       0x00000000   Number         0  gpio.o ABSOLUTE
    ..\..\..\..\sdk\driver\i2c\i2c.c         0x00000000   Number         0  i2c.o ABSOLUTE
    ..\..\..\..\sdk\driver\i2s\i2s.c         0x00000000   Number         0  i2s.o ABSOLUTE
    ..\..\..\..\sdk\driver\idma\idma.c       0x00000000   Number         0  idma.o ABSOLUTE
    ..\..\..\..\sdk\driver\sar_adc\sar_adc.c 0x00000000   Number         0  sar_adc.o ABSOLUTE
    ..\..\..\..\sdk\driver\spifc\spifc.c     0x00000000   Number         0  spifc.o ABSOLUTE
    ..\..\..\..\sdk\driver\timer_pwm\timer_pwm.c 0x00000000   Number         0  timer_pwm.o ABSOLUTE
    ..\..\..\..\sdk\driver\util\log_util.c   0x00000000   Number         0  log_util.o ABSOLUTE
    ..\\..\\..\\..\\..\\bsp\\bsp.c           0x00000000   Number         0  bsp.o ABSOLUTE
    ..\\..\\..\\..\\..\\project\\sample\\audio32_demo\\core_0\\fun_main.c 0x00000000   Number         0  fun_main.o ABSOLUTE
    ..\\..\\..\\..\\..\\project\\sample\\audio32_demo\\core_0\\key.c 0x00000000   Number         0  key.o ABSOLUTE
    ..\\..\\..\\..\\..\\project\\sample\\audio32_demo\\core_0\\led.c 0x00000000   Number         0  led.o ABSOLUTE
    ..\\..\\..\\..\\..\\project\\sample\\audio32_demo\\core_0\\main.c 0x00000000   Number         0  main.o ABSOLUTE
    ..\\..\\..\\..\\..\\project\\sample\\audio32_demo\\core_0\\motor.c 0x00000000   Number         0  motor.o ABSOLUTE
    ..\\..\\..\\..\\..\\sdk\\driver\\i2s\\i2s4.c 0x00000000   Number         0  i2s4.o ABSOLUTE
    ..\\..\\..\\..\\..\\sdk\\driver\\uart\\uart.c 0x00000000   Number         0  uart.o ABSOLUTE
    ..\\..\\..\\..\\..\\sdk\\share\\sonix\\audio\\audio.c 0x00000000   Number         0  audio.o ABSOLUTE
    ..\\..\\..\\..\\..\\sdk\\share\\sonix\\audio\\rom_code_api.c 0x00000000   Number         0  rom_code_api.o ABSOLUTE
    ..\\..\\..\\..\\..\\sdk\\share\\sonix\\sw_i2c\\I2C_Software_Master.c 0x00000000   Number         0  i2c_software_master.o ABSOLUTE
    ..\\..\\..\\..\\..\\sdk\\share\\thirdparty\\aud_driver\\aud_driver.c 0x00000000   Number         0  aud_driver.o ABSOLUTE
    ..\\..\\..\\..\\sdk\\driver\\codec\\codec.c 0x00000000   Number         0  codec.o ABSOLUTE
    ..\\..\\..\\..\\sdk\\driver\\gpio\\gpio.c 0x00000000   Number         0  gpio.o ABSOLUTE
    ..\\..\\..\\..\\sdk\\driver\\i2c\\i2c.c  0x00000000   Number         0  i2c.o ABSOLUTE
    ..\\..\\..\\..\\sdk\\driver\\i2s\\i2s.c  0x00000000   Number         0  i2s.o ABSOLUTE
    ..\\..\\..\\..\\sdk\\driver\\idma\\idma.c 0x00000000   Number         0  idma.o ABSOLUTE
    ..\\..\\..\\..\\sdk\\driver\\sar_adc\\sar_adc.c 0x00000000   Number         0  sar_adc.o ABSOLUTE
    ..\\..\\..\\..\\sdk\\driver\\spifc\\spifc.c 0x00000000   Number         0  spifc.o ABSOLUTE
    ..\\..\\..\\..\\sdk\\driver\\timer_pwm\\timer_pwm.c 0x00000000   Number         0  timer_pwm.o ABSOLUTE
    ..\\..\\..\\..\\sdk\\driver\\util\\log_util.c 0x00000000   Number         0  log_util.o ABSOLUTE
    src/BsrAli.c                             0x00000000   Number         0  BsrAli.o ABSOLUTE
    src/BsrAna.c                             0x00000000   Number         0  BsrAna.o ABSOLUTE
    src/BsrAnn.c                             0x00000000   Number         0  BsrAnn.o ABSOLUTE
    src/BsrBen.c                             0x00000000   Number         0  BsrBen.o ABSOLUTE
    src/BsrDon.c                             0x00000000   Number         0  BsrDon.o ABSOLUTE
    src/BsrEli.c                             0x00000000   Number         0  BsrEli.o ABSOLUTE
    src/BsrEva.c                             0x00000000   Number         0  BsrEva.o ABSOLUTE
    src/BsrGo.c                              0x00000000   Number         0  BsrGo.o ABSOLUTE
    src/BsrGuy.c                             0x00000000   Number         0  BsrGuy.o ABSOLUTE
    src/BsrJay.c                             0x00000000   Number         0  BsrJay.o ABSOLUTE
    src/BsrJim.c                             0x00000000   Number         0  BsrJim.o ABSOLUTE
    src/BsrJoe.c                             0x00000000   Number         0  BsrJoe.o ABSOLUTE
    src/BsrJoy.c                             0x00000000   Number         0  BsrJoy.o ABSOLUTE
    src/BsrKai.c                             0x00000000   Number         0  BsrKai.o ABSOLUTE
    src/BsrLea.c                             0x00000000   Number         0  BsrLea.o ABSOLUTE
    src/BsrLuz.c                             0x00000000   Number         0  BsrLuz.o ABSOLUTE
    src/BsrMax.c                             0x00000000   Number         0  BsrMax.o ABSOLUTE
    src/BsrMia.c                             0x00000000   Number         0  BsrMia.o ABSOLUTE
    src/BsrMya.c                             0x00000000   Number         0  BsrMya.o ABSOLUTE
    src/BsrNia.c                             0x00000000   Number         0  BsrNia.o ABSOLUTE
    src/BsrNoe.c                             0x00000000   Number         0  BsrNoe.o ABSOLUTE
    src/BsrRay.c                             0x00000000   Number         0  BsrRay.o ABSOLUTE
    src/BsrRex.c                             0x00000000   Number         0  BsrRex.o ABSOLUTE
    src/CSpotterSDKApi.c                     0x00000000   Number         0  CSpotterSDKApi.o ABSOLUTE
    src/CSpotterSDTrainApi.c                 0x00000000   Number         0  CSpotterSDTrainApi.o ABSOLUTE
    !!!main                                  0x00000124   Section        8  __main.o(!!!main)
    !!!scatter                               0x0000012c   Section       52  __scatter.o(!!!scatter)
    !!handler_copy                           0x00000160   Section       26  __scatter_copy.o(!!handler_copy)
    !!handler_zi                             0x0000017c   Section       28  __scatter_zi.o(!!handler_zi)
    .ARM.Collect$$_printf_percent$$00000000  0x00000198   Section        0  _printf_percent.o(.ARM.Collect$$_printf_percent$$00000000)
    .ARM.Collect$$_printf_percent$$00000001  0x00000198   Section        6  _printf_n.o(.ARM.Collect$$_printf_percent$$00000001)
    .ARM.Collect$$_printf_percent$$00000002  0x0000019e   Section        6  _printf_p.o(.ARM.Collect$$_printf_percent$$00000002)
    .ARM.Collect$$_printf_percent$$00000003  0x000001a4   Section        6  _printf_f.o(.ARM.Collect$$_printf_percent$$00000003)
    .ARM.Collect$$_printf_percent$$00000004  0x000001aa   Section        6  _printf_e.o(.ARM.Collect$$_printf_percent$$00000004)
    .ARM.Collect$$_printf_percent$$00000005  0x000001b0   Section        6  _printf_g.o(.ARM.Collect$$_printf_percent$$00000005)
    .ARM.Collect$$_printf_percent$$00000006  0x000001b6   Section        6  _printf_a.o(.ARM.Collect$$_printf_percent$$00000006)
    .ARM.Collect$$_printf_percent$$00000007  0x000001bc   Section       10  _printf_ll.o(.ARM.Collect$$_printf_percent$$00000007)
    .ARM.Collect$$_printf_percent$$00000008  0x000001c6   Section        6  _printf_i.o(.ARM.Collect$$_printf_percent$$00000008)
    .ARM.Collect$$_printf_percent$$00000009  0x000001cc   Section        6  _printf_d.o(.ARM.Collect$$_printf_percent$$00000009)
    .ARM.Collect$$_printf_percent$$0000000A  0x000001d2   Section        6  _printf_u.o(.ARM.Collect$$_printf_percent$$0000000A)
    .ARM.Collect$$_printf_percent$$0000000B  0x000001d8   Section        6  _printf_o.o(.ARM.Collect$$_printf_percent$$0000000B)
    .ARM.Collect$$_printf_percent$$0000000C  0x000001de   Section        6  _printf_x.o(.ARM.Collect$$_printf_percent$$0000000C)
    .ARM.Collect$$_printf_percent$$0000000D  0x000001e4   Section        6  _printf_lli.o(.ARM.Collect$$_printf_percent$$0000000D)
    .ARM.Collect$$_printf_percent$$0000000E  0x000001ea   Section        6  _printf_lld.o(.ARM.Collect$$_printf_percent$$0000000E)
    .ARM.Collect$$_printf_percent$$0000000F  0x000001f0   Section        6  _printf_llu.o(.ARM.Collect$$_printf_percent$$0000000F)
    .ARM.Collect$$_printf_percent$$00000010  0x000001f6   Section        6  _printf_llo.o(.ARM.Collect$$_printf_percent$$00000010)
    .ARM.Collect$$_printf_percent$$00000011  0x000001fc   Section        6  _printf_llx.o(.ARM.Collect$$_printf_percent$$00000011)
    .ARM.Collect$$_printf_percent$$00000012  0x00000202   Section       10  _printf_l.o(.ARM.Collect$$_printf_percent$$00000012)
    .ARM.Collect$$_printf_percent$$00000013  0x0000020c   Section        6  _printf_c.o(.ARM.Collect$$_printf_percent$$00000013)
    .ARM.Collect$$_printf_percent$$00000014  0x00000212   Section        6  _printf_s.o(.ARM.Collect$$_printf_percent$$00000014)
    .ARM.Collect$$_printf_percent$$00000015  0x00000218   Section        6  _printf_lc.o(.ARM.Collect$$_printf_percent$$00000015)
    .ARM.Collect$$_printf_percent$$00000016  0x0000021e   Section        6  _printf_ls.o(.ARM.Collect$$_printf_percent$$00000016)
    .ARM.Collect$$_printf_percent$$00000017  0x00000224   Section        4  _printf_percent_end.o(.ARM.Collect$$_printf_percent$$00000017)
    .ARM.Collect$$libinit$$00000000          0x00000228   Section        2  libinit.o(.ARM.Collect$$libinit$$00000000)
    .ARM.Collect$$libinit$$00000002          0x0000022a   Section        0  libinit2.o(.ARM.Collect$$libinit$$00000002)
    .ARM.Collect$$libinit$$00000004          0x0000022a   Section        0  libinit2.o(.ARM.Collect$$libinit$$00000004)
    .ARM.Collect$$libinit$$00000005          0x0000022a   Section        8  libinit2.o(.ARM.Collect$$libinit$$00000005)
    .ARM.Collect$$libinit$$0000000A          0x00000232   Section        0  libinit2.o(.ARM.Collect$$libinit$$0000000A)
    .ARM.Collect$$libinit$$0000000C          0x00000232   Section        0  libinit2.o(.ARM.Collect$$libinit$$0000000C)
    .ARM.Collect$$libinit$$0000000E          0x00000232   Section        0  libinit2.o(.ARM.Collect$$libinit$$0000000E)
    .ARM.Collect$$libinit$$0000000F          0x00000232   Section        6  libinit2.o(.ARM.Collect$$libinit$$0000000F)
    .ARM.Collect$$libinit$$00000011          0x00000238   Section        0  libinit2.o(.ARM.Collect$$libinit$$00000011)
    .ARM.Collect$$libinit$$00000012          0x00000238   Section       12  libinit2.o(.ARM.Collect$$libinit$$00000012)
    .ARM.Collect$$libinit$$00000013          0x00000244   Section        0  libinit2.o(.ARM.Collect$$libinit$$00000013)
    .ARM.Collect$$libinit$$00000015          0x00000244   Section        0  libinit2.o(.ARM.Collect$$libinit$$00000015)
    .ARM.Collect$$libinit$$00000016          0x00000244   Section       10  libinit2.o(.ARM.Collect$$libinit$$00000016)
    .ARM.Collect$$libinit$$00000017          0x0000024e   Section        0  libinit2.o(.ARM.Collect$$libinit$$00000017)
    .ARM.Collect$$libinit$$00000019          0x0000024e   Section        0  libinit2.o(.ARM.Collect$$libinit$$00000019)
    .ARM.Collect$$libinit$$0000001B          0x0000024e   Section        0  libinit2.o(.ARM.Collect$$libinit$$0000001B)
    .ARM.Collect$$libinit$$0000001D          0x0000024e   Section        0  libinit2.o(.ARM.Collect$$libinit$$0000001D)
    .ARM.Collect$$libinit$$0000001F          0x0000024e   Section        0  libinit2.o(.ARM.Collect$$libinit$$0000001F)
    .ARM.Collect$$libinit$$00000021          0x0000024e   Section        0  libinit2.o(.ARM.Collect$$libinit$$00000021)
    .ARM.Collect$$libinit$$00000023          0x0000024e   Section        0  libinit2.o(.ARM.Collect$$libinit$$00000023)
    .ARM.Collect$$libinit$$00000025          0x0000024e   Section        0  libinit2.o(.ARM.Collect$$libinit$$00000025)
    .ARM.Collect$$libinit$$0000002C          0x0000024e   Section        0  libinit2.o(.ARM.Collect$$libinit$$0000002C)
    .ARM.Collect$$libinit$$0000002E          0x0000024e   Section        0  libinit2.o(.ARM.Collect$$libinit$$0000002E)
    .ARM.Collect$$libinit$$00000030          0x0000024e   Section        0  libinit2.o(.ARM.Collect$$libinit$$00000030)
    .ARM.Collect$$libinit$$00000032          0x0000024e   Section        0  libinit2.o(.ARM.Collect$$libinit$$00000032)
    .ARM.Collect$$libinit$$00000033          0x0000024e   Section        2  libinit2.o(.ARM.Collect$$libinit$$00000033)
    .ARM.Collect$$libshutdown$$00000000      0x00000250   Section        2  libshutdown.o(.ARM.Collect$$libshutdown$$00000000)
    .ARM.Collect$$libshutdown$$00000002      0x00000252   Section        0  libshutdown2.o(.ARM.Collect$$libshutdown$$00000002)
    .ARM.Collect$$libshutdown$$00000004      0x00000252   Section        0  libshutdown2.o(.ARM.Collect$$libshutdown$$00000004)
    .ARM.Collect$$libshutdown$$00000007      0x00000252   Section        0  libshutdown2.o(.ARM.Collect$$libshutdown$$00000007)
    .ARM.Collect$$libshutdown$$0000000A      0x00000252   Section        0  libshutdown2.o(.ARM.Collect$$libshutdown$$0000000A)
    .ARM.Collect$$libshutdown$$0000000C      0x00000252   Section        0  libshutdown2.o(.ARM.Collect$$libshutdown$$0000000C)
    .ARM.Collect$$libshutdown$$0000000F      0x00000252   Section        0  libshutdown2.o(.ARM.Collect$$libshutdown$$0000000F)
    .ARM.Collect$$libshutdown$$00000010      0x00000252   Section        2  libshutdown2.o(.ARM.Collect$$libshutdown$$00000010)
    .ARM.Collect$$rtentry$$00000000          0x00000254   Section        0  __rtentry.o(.ARM.Collect$$rtentry$$00000000)
    .ARM.Collect$$rtentry$$00000002          0x00000254   Section        0  __rtentry2.o(.ARM.Collect$$rtentry$$00000002)
    .ARM.Collect$$rtentry$$00000004          0x00000254   Section        6  __rtentry4.o(.ARM.Collect$$rtentry$$00000004)
    .ARM.Collect$$rtentry$$00000009          0x0000025a   Section        0  __rtentry2.o(.ARM.Collect$$rtentry$$00000009)
    .ARM.Collect$$rtentry$$0000000A          0x0000025a   Section        4  __rtentry2.o(.ARM.Collect$$rtentry$$0000000A)
    .ARM.Collect$$rtentry$$0000000C          0x0000025e   Section        0  __rtentry2.o(.ARM.Collect$$rtentry$$0000000C)
    .ARM.Collect$$rtentry$$0000000D          0x0000025e   Section        8  __rtentry2.o(.ARM.Collect$$rtentry$$0000000D)
    .ARM.Collect$$rtexit$$00000000           0x00000266   Section        2  rtexit.o(.ARM.Collect$$rtexit$$00000000)
    .ARM.Collect$$rtexit$$00000002           0x00000268   Section        0  rtexit2.o(.ARM.Collect$$rtexit$$00000002)
    .ARM.Collect$$rtexit$$00000003           0x00000268   Section        4  rtexit2.o(.ARM.Collect$$rtexit$$00000003)
    .ARM.Collect$$rtexit$$00000004           0x0000026c   Section        6  rtexit2.o(.ARM.Collect$$rtexit$$00000004)
    .emb_text                                0x00000274   Section        0  maybetermalloc1.o(.emb_text)
    .text                                    0x00000274   Section        0  main.o(.text)
    .text                                    0x00000c7c   Section        0  bsp.o(.text)
    _exec_init_script                        0x00000c7d   Thumb Code   150  bsp.o(.text)
    _init_clock_setting                      0x00000d13   Thumb Code    90  bsp.o(.text)
    _init_core_1_customize                   0x00000d6d   Thumb Code    44  bsp.o(.text)
    _init_icache                             0x00000d99   Thumb Code    38  bsp.o(.text)
    _init_spi_nand                           0x00000dbf   Thumb Code    20  bsp.o(.text)
    .text                                    0x00000ed0   Section       80  startup.o(.text)
    .text                                    0x00000f20   Section        0  codec.o(.text)
    Check_Serial_Number_is_Correct           0x00000f21   Thumb Code    24  codec.o(.text)
    .text                                    0x00001240   Section        0  gpio.o(.text)
    reg_write_mask_bits                      0x00001241   Thumb Code    38  gpio.o(.text)
    NVIC_ClearPendingIRQ                     0x000019eb   Thumb Code    18  gpio.o(.text)
    reg_write_bits                           0x000019fd   Thumb Code     4  gpio.o(.text)
    reg_read_bits                            0x00001a01   Thumb Code     6  gpio.o(.text)
    .text                                    0x00001a18   Section        0  i2c.o(.text)
    _I2C_Get_Handle                          0x00001a19   Thumb Code    26  i2c.o(.text)
    _i2c_time_out_init                       0x00001a33   Thumb Code     8  i2c.o(.text)
    _i2c_time_out                            0x00001a3b   Thumb Code    32  i2c.o(.text)
    _I2C_Address_Setting                     0x00001a5b   Thumb Code   122  i2c.o(.text)
    _I2C_Enable                              0x00001b07   Thumb Code    14  i2c.o(.text)
    _I2C_Disable                             0x00001b2f   Thumb Code    10  i2c.o(.text)
    _I2C_SlaveRxFIFO_Start                   0x00001bff   Thumb Code    22  i2c.o(.text)
    NVIC_EnableIRQ                           0x00002367   Thumb Code    22  i2c.o(.text)
    NVIC_ClearPendingIRQ                     0x0000237d   Thumb Code    18  i2c.o(.text)
    .text                                    0x00002398   Section        0  spifc.o(.text)
    reg_write_mask_bits                      0x00002399   Thumb Code    38  spifc.o(.text)
    _SPIFC_RWStatus                          0x000023bf   Thumb Code    84  spifc.o(.text)
    reg_clear_bit                            0x000028c3   Thumb Code    12  spifc.o(.text)
    reg_set_bit                              0x000028cf   Thumb Code    12  spifc.o(.text)
    reg_write_bits                           0x000028db   Thumb Code     4  spifc.o(.text)
    reg_read_bits                            0x000028df   Thumb Code     6  spifc.o(.text)
    reg_read_mask_bits                       0x000028e5   Thumb Code    16  spifc.o(.text)
    .text                                    0x000028fc   Section        0  log_util.o(.text)
    .text                                    0x00002aa4   Section        0  timer_pwm.o(.text)
    reg_write_mask_bits                      0x00002aa5   Thumb Code    38  timer_pwm.o(.text)
    _timer_get_handle                        0x00002acb   Thumb Code    62  timer_pwm.o(.text)
    NVIC_ClearPendingIRQ                     0x00002ffd   Thumb Code    18  timer_pwm.o(.text)
    reg_write_bits                           0x0000300f   Thumb Code     4  timer_pwm.o(.text)
    reg_read_bits                            0x00003013   Thumb Code     6  timer_pwm.o(.text)
    reg_read_mask_bits                       0x00003019   Thumb Code    16  timer_pwm.o(.text)
    .text                                    0x00003034   Section        0  sar_adc.o(.text)
    .text                                    0x00003114   Section        0  i2s.o(.text)
    _i2s_ch_get_handle                       0x00003115   Thumb Code    42  i2s.o(.text)
    _I2S_SET_IMCLKDIV                        0x00003261   Thumb Code    10  i2s.o(.text)
    _IHRC_case                               0x0000326b   Thumb Code   112  i2s.o(.text)
    _XTAL_case                               0x000032db   Thumb Code   112  i2s.o(.text)
    _IMCLK_I2S_4_case                        0x0000334b   Thumb Code    42  i2s.o(.text)
    _FPLL_case                               0x00003375   Thumb Code   112  i2s.o(.text)
    NVIC_EnableIRQ                           0x000037f3   Thumb Code    22  i2s.o(.text)
    NVIC_DisableIRQ                          0x00003809   Thumb Code    18  i2s.o(.text)
    NVIC_ClearPendingIRQ                     0x0000381b   Thumb Code    18  i2s.o(.text)
    .text                                    0x00003838   Section        0  idma.o(.text)
    reg_write_mask_bits                      0x00003873   Thumb Code    36  idma.o(.text)
    _idma_get_handle                         0x00003897   Thumb Code    96  idma.o(.text)
    _idma_chk_addr                           0x000038f7   Thumb Code   188  idma.o(.text)
    _idma_redirect_to_sram                   0x000039e3   Thumb Code   336  idma.o(.text)
    reg_write_bits                           0x00003d5f   Thumb Code     4  idma.o(.text)
    reg_read_mask_bits                       0x00003d63   Thumb Code    10  idma.o(.text)
    .text                                    0x00003d70   Section        0  h1_alloc.o(.text)
    .text                                    0x00003dce   Section        0  h1_free.o(.text)
    .text                                    0x00003e1c   Section        0  vsnprintf.o(.text)
    .text                                    0x00003e50   Section      100  rt_memcpy_w.o(.text)
    .text                                    0x00003eb4   Section       68  rt_memclr.o(.text)
    .text                                    0x00003ef8   Section       78  rt_memclr_w.o(.text)
    .text                                    0x00003f46   Section        0  heapauxi.o(.text)
    .text                                    0x00003f4c   Section        8  rt_heap_descriptor_intlibspace.o(.text)
    .text                                    0x00003f54   Section        0  hguard.o(.text)
    .text                                    0x00003f58   Section        0  init_alloc.o(.text)
    .text                                    0x00003fe2   Section        0  h1_init.o(.text)
    .text                                    0x00003ff0   Section        0  _printf_pad.o(.text)
    .text                                    0x0000403e   Section        0  _printf_truncate.o(.text)
    .text                                    0x00004062   Section        0  _printf_str.o(.text)
    .text                                    0x000040b4   Section        0  _printf_dec.o(.text)
    .text                                    0x0000412c   Section        0  _printf_charcount.o(.text)
    .text                                    0x00004154   Section        0  _printf_char_common.o(.text)
    _printf_input_char                       0x00004155   Thumb Code    10  _printf_char_common.o(.text)
    .text                                    0x00004184   Section        0  _sputc.o(.text)
    .text                                    0x0000418e   Section        0  _snputc.o(.text)
    .text                                    0x000041a0   Section        0  _printf_wctomb.o(.text)
    .text                                    0x0000425c   Section        0  _printf_longlong_dec.o(.text)
    .text                                    0x000042d8   Section        0  _printf_oct_int_ll.o(.text)
    _printf_longlong_oct_internal            0x000042d9   Thumb Code     0  _printf_oct_int_ll.o(.text)
    .text                                    0x00004348   Section        0  _printf_hex_int_ll_ptr.o(.text)
    _printf_hex_common                       0x00004349   Thumb Code     0  _printf_hex_int_ll_ptr.o(.text)
    .text                                    0x000043dc   Section        0  __printf_flags_ss_wp.o(.text)
    .text                                    0x00004564   Section        8  libspace.o(.text)
    .text                                    0x0000456c   Section        0  h1_extend.o(.text)
    .text                                    0x000045a0   Section      138  lludiv10.o(.text)
    .text                                    0x0000462a   Section        0  _printf_intcommon.o(.text)
    .text                                    0x000046dc   Section        0  _printf_fp_dec.o(.text)
    _fp_digits                               0x000046df   Thumb Code   428  _printf_fp_dec.o(.text)
    .text                                    0x00004af8   Section        0  _printf_fp_hex.o(.text)
    .text                                    0x00004df4   Section        0  _printf_char.o(.text)
    .text                                    0x00004e20   Section        0  _printf_wchar.o(.text)
    .text                                    0x00004e4c   Section        0  _wcrtomb.o(.text)
    .text                                    0x00004e8c   Section        0  defsig_rtmem_outer.o(.text)
    .text                                    0x00004e9a   Section        2  use_no_semi.o(.text)
    .text                                    0x00004e9c   Section        0  indicate_semi.o(.text)
    .text                                    0x00004e9c   Section       74  sys_stackheap_outer.o(.text)
    .text                                    0x00004ee8   Section       16  rt_ctype_table.o(.text)
    .text                                    0x00004ef8   Section        8  rt_locale_intlibspace.o(.text)
    .text                                    0x00004f00   Section        0  _printf_fp_infnan.o(.text)
    .text                                    0x00004f80   Section        0  bigflt0.o(.text)
    .text                                    0x0000505c   Section        0  exit.o(.text)
    .text                                    0x0000506e   Section        0  defsig_exit.o(.text)
    .text                                    0x00005078   Section        0  defsig_rtmem_inner.o(.text)
    .text                                    0x000050c8   Section        0  sys_exit.o(.text)
    .text                                    0x000050d4   Section        0  defsig_general.o(.text)
    .text                                    0x00005108   Section      128  strcmpv7m.o(.text)
    .text                                    0x00005188   Section        0  sys_wrch.o(.text)
    CL$$btod_d2e                             0x00005196   Section       62  btod.o(CL$$btod_d2e)
    CL$$btod_d2e_denorm_low                  0x000051d4   Section       70  btod.o(CL$$btod_d2e_denorm_low)
    CL$$btod_d2e_norm_op1                    0x0000521a   Section       96  btod.o(CL$$btod_d2e_norm_op1)
    CL$$btod_div_common                      0x0000527a   Section      824  btod.o(CL$$btod_div_common)
    CL$$btod_e2e                             0x000055b2   Section      198  btod.o(CL$$btod_e2e)
    CL$$btod_ediv                            0x00005678   Section       40  btod.o(CL$$btod_ediv)
    CL$$btod_emul                            0x000056a0   Section       40  btod.o(CL$$btod_emul)
    CL$$btod_mult_common                     0x000056c8   Section      580  btod.o(CL$$btod_mult_common)
    i.BsrAbby                                0x000059ac   Section        0  BsrJoe.o(i.BsrAbby)
    i.BsrAbel                                0x000059d8   Section        0  BsrJoe.o(i.BsrAbel)
    i.BsrAdam                                0x00005a5a   Section        0  BsrJoe.o(i.BsrAdam)
    i.BsrAlma                                0x00005b3e   Section        0  BsrDon.o(i.BsrAlma)
    i.BsrAmir                                0x00005c3a   Section        0  BsrDon.o(i.BsrAmir)
    i.BsrAmos                                0x00005c52   Section        0  BsrDon.o(i.BsrAmos)
    i.BsrAna                                 0x00005d86   Section        0  BsrJim.o(i.BsrAna)
    i.BsrAnna                                0x00005dae   Section        0  BsrDon.o(i.BsrAnna)
    i.BsrAnne                                0x00005dd2   Section        0  BsrDon.o(i.BsrAnne)
    i.BsrAnnie                               0x00005de8   Section        0  BsrDon.o(i.BsrAnnie)
    i.BsrAri                                 0x00005e08   Section        0  BsrJim.o(i.BsrAri)
    i.BsrAsa                                 0x00005ec8   Section        0  BsrJim.o(i.BsrAsa)
    i.BsrAvea                                0x00005fd0   Section        0  BsrJim.o(i.BsrAvea)
    i.BsrAyla                                0x00006086   Section        0  BsrDon.o(i.BsrAyla)
    i.BsrBaby                                0x0000609e   Section        0  BsrDon.o(i.BsrBaby)
    i.BsrBen                                 0x000060ac   Section        0  BsrJim.o(i.BsrBen)
    BsrBen                                   0x000060ad   Thumb Code   296  BsrJim.o(i.BsrBen)
    i.BsrBrad                                0x000061d4   Section        0  BsrBen.o(i.BsrBrad)
    i.BsrBret                                0x0000620c   Section        0  BsrJay.o(i.BsrBret)
    BsrBret                                  0x0000620d   Thumb Code   294  BsrJay.o(i.BsrBret)
    i.BsrCade                                0x00006338   Section        0  BsrJay.o(i.BsrCade)
    i.BsrCadea                               0x00006490   Section        0  BsrJay.o(i.BsrCadea)
    i.BsrCale                                0x0000658c   Section        0  BsrJay.o(i.BsrCale)
    i.BsrCara                                0x000065e0   Section        0  BsrJay.o(i.BsrCara)
    i.BsrCarae                               0x000069ac   Section        0  BsrJay.o(i.BsrCarae)
    i.BsrChad                                0x00006a68   Section        0  BsrJay.o(i.BsrChad)
    i.BsrChada                               0x00006b38   Section        0  BsrJay.o(i.BsrChada)
    i.BsrChaz                                0x00006b84   Section        0  BsrJay.o(i.BsrChaz)
    i.BsrChaza                               0x00006c60   Section        0  BsrJay.o(i.BsrChaza)
    i.BsrChaze                               0x00006d00   Section        0  BsrJay.o(i.BsrChaze)
    i.BsrChazi                               0x00006dd8   Section        0  BsrJay.o(i.BsrChazi)
    i.BsrClay                                0x00006e9c   Section        0  BsrJay.o(i.BsrClay)
    i.BsrCory                                0x0000743c   Section        0  BsrJoy.o(i.BsrCory)
    i.BsrCoty                                0x00007618   Section        0  BsrJoy.o(i.BsrCoty)
    i.BsrDan                                 0x00007638   Section        0  BsrJim.o(i.BsrDan)
    i.BsrDane                                0x00007692   Section        0  BsrJoy.o(i.BsrDane)
    i.BsrDawn                                0x0000769a   Section        0  BsrJoy.o(i.BsrDawn)
    i.BsrDeja                                0x000076a4   Section        0  BsrJoy.o(i.BsrDeja)
    i.BsrDemi                                0x00007728   Section        0  BsrJoy.o(i.BsrDemi)
    i.BsrDeon                                0x00007888   Section        0  BsrJoy.o(i.BsrDeon)
    i.BsrDina                                0x000079d0   Section        0  BsrJoy.o(i.BsrDina)
    i.BsrDion                                0x00007bf8   Section        0  BsrJoy.o(i.BsrDion)
    i.BsrEden                                0x00007cc8   Section        0  BsrEva.o(i.BsrEden)
    i.BsrEli                                 0x00007e3c   Section        0  BsrJim.o(i.BsrEli)
    i.BsrElla                                0x00007e98   Section        0  BsrEva.o(i.BsrElla)
    i.BsrElsa                                0x00008068   Section        0  BsrEva.o(i.BsrElsa)
    i.BsrEmma                                0x00008208   Section        0  BsrEli.o(i.BsrEmma)
    i.BsrEric                                0x000082e6   Section        0  BsrEli.o(i.BsrEric)
    i.BsrErica                               0x00008374   Section        0  BsrEli.o(i.BsrErica)
    i.BsrErik                                0x00008498   Section        0  BsrEli.o(i.BsrErik)
    i.BsrErin                                0x000084d4   Section        0  BsrEli.o(i.BsrErin)
    i.BsrEva                                 0x000085d0   Section        0  BsrJim.o(i.BsrEva)
    i.BsrEvan                                0x000085f2   Section        0  BsrEli.o(i.BsrEvan)
    i.BsrGary                                0x0000862c   Section        0  BsrAna.o(i.BsrGary)
    i.BsrGreg                                0x000086e0   Section        0  BsrAnn.o(i.BsrGreg)
    i.BsrGuy                                 0x0000888c   Section        0  BsrJim.o(i.BsrGuy)
    i.BsrHugo                                0x000088c8   Section        0  BsrGuy.o(i.BsrHugo)
    i.BsrIris                                0x00008998   Section        0  BsrGuy.o(i.BsrIris)
    i.BsrIrma                                0x000089d0   Section        0  BsrGuy.o(i.BsrIrma)
    i.BsrIsai                                0x00008a28   Section        0  BsrGuy.o(i.BsrIsai)
    i.BsrIvy                                 0x00008a5e   Section        0  BsrJim.o(i.BsrIvy)
    i.BsrJamii                               0x00008b14   Section        0  BsrJoy.o(i.BsrJamii)
    BsrJamii                                 0x00008b15   Thumb Code   216  BsrJoy.o(i.BsrJamii)
    i.BsrJan                                 0x00008bec   Section        0  BsrJim.o(i.BsrJan)
    i.BsrJeni                                0x00008c00   Section        0  BsrJay.o(i.BsrJeni)
    BsrJeni                                  0x00008c01   Thumb Code   358  BsrJay.o(i.BsrJeni)
    i.BsrJoan                                0x00008d6c   Section        0  BsrKai.o(i.BsrJoan)
    BsrJoan                                  0x00008d6d   Thumb Code   328  BsrKai.o(i.BsrJoan)
    i.BsrJohn                                0x00008eb4   Section        0  BsrAli.o(i.BsrJohn)
    i.BsrJose                                0x00008ee0   Section        0  BsrAli.o(i.BsrJose)
    i.BsrJosh                                0x00008f1c   Section        0  BsrAli.o(i.BsrJosh)
    i.BsrJoyci                               0x00008fd0   Section        0  BsrJim.o(i.BsrJoyci)
    i.BsrJuanitez                            0x000090bc   Section        0  BsrEva.o(i.BsrJuanitez)
    BsrJuanitez                              0x000090bd   Thumb Code    58  BsrEva.o(i.BsrJuanitez)
    i.BsrLei                                 0x000090f6   Section        0  BsrJim.o(i.BsrLei)
    i.BsrMichael                             0x00009114   Section        0  BsrJim.o(i.BsrMichael)
    i.BsrMichelle                            0x00009688   Section        0  BsrJim.o(i.BsrMichelle)
    i.BsrMike                                0x00009690   Section        0  BsrJim.o(i.BsrMike)
    i.BsrMya                                 0x0000975e   Section        0  BsrKai.o(i.BsrMya)
    i.BsrNia                                 0x000097fa   Section        0  BsrKai.o(i.BsrNia)
    i.BsrRay                                 0x00009832   Section        0  BsrKai.o(i.BsrRay)
    i.BsrRex                                 0x0000994e   Section        0  BsrKai.o(i.BsrRex)
    i.BsrRey                                 0x0000995e   Section        0  BsrKai.o(i.BsrRey)
    i.BsrRon                                 0x0000996c   Section        0  BsrKai.o(i.BsrRon)
    i.BsrRoy                                 0x00009e40   Section        0  BsrKai.o(i.BsrRoy)
    i.BsrTed                                 0x00009e6c   Section        0  BsrKai.o(i.BsrTed)
    i.BsrTia                                 0x00009e7a   Section        0  BsrKai.o(i.BsrTia)
    i.BsrTom                                 0x00009eec   Section        0  BsrKai.o(i.BsrTom)
    i.BsrTop                                 0x00009f8a   Section        0  BsrKai.o(i.BsrTop)
    i.BsrTre                                 0x00009fec   Section        0  BsrKai.o(i.BsrTre)
    i.BsrZoe                                 0x0000a000   Section        0  BsrJoe.o(i.BsrZoe)
    i.CSpotter_AddSample                     0x0000a004   Section        0  CSpotterSDKApi.o(i.CSpotter_AddSample)
    i.CSpotter_GetMemoryUsage_Multi          0x0000a05c   Section        0  CSpotterSDKApi.o(i.CSpotter_GetMemoryUsage_Multi)
    i.CSpotter_GetMemoryUsage_MultiWithSpeakerAndExtRejModel 0x0000a074   Section        0  CSpotterSDKApi.o(i.CSpotter_GetMemoryUsage_MultiWithSpeakerAndExtRejModel)
    i.CSpotter_GetNumWord                    0x0000a14c   Section        0  CSpotterSDKApi.o(i.CSpotter_GetNumWord)
    i.CSpotter_GetResult                     0x0000a184   Section        0  CSpotterSDKApi.o(i.CSpotter_GetResult)
    i.CSpotter_Init_Multi                    0x0000a1a4   Section        0  CSpotterSDKApi.o(i.CSpotter_Init_Multi)
    i.CSpotter_Init_MultiWithExtRejModel     0x0000a1cc   Section        0  CSpotterSDKApi.o(i.CSpotter_Init_MultiWithExtRejModel)
    i.CSpotter_Reset                         0x0000a3cc   Section        0  CSpotterSDKApi.o(i.CSpotter_Reset)
    i.CSpotter_SetRejectionLevel             0x0000a3fc   Section        0  CSpotterSDKApi.o(i.CSpotter_SetRejectionLevel)
    i.NINJA_API_1                            0x0000a428   Section        0  BsrGo.o(i.NINJA_API_1)
    i.NINJA_API_11                           0x0000a4a0   Section        0  BsrGo.o(i.NINJA_API_11)
    i.NINJA_API_13                           0x0000a714   Section        0  BsrGo.o(i.NINJA_API_13)
    i.NINJA_API_15                           0x0000a878   Section        0  BsrGo.o(i.NINJA_API_15)
    i.NINJA_API_19                           0x0000a898   Section        0  BsrGo.o(i.NINJA_API_19)
    i.NINJA_API_2                            0x0000a8b8   Section        0  BsrGo.o(i.NINJA_API_2)
    i.NINJA_API_23                           0x0000a8e0   Section        0  BsrGo.o(i.NINJA_API_23)
    i.NINJA_API_26                           0x0000a904   Section        0  BsrGo.o(i.NINJA_API_26)
    i.NINJA_API_3                            0x0000a934   Section        0  BsrGo.o(i.NINJA_API_3)
    i.NINJA_API_31                           0x0000a956   Section        0  BsrGo.o(i.NINJA_API_31)
    i.NINJA_API_47                           0x0000a960   Section        0  BsrGo.o(i.NINJA_API_47)
    i.NINJA_API_48                           0x0000a9cc   Section        0  BsrGo.o(i.NINJA_API_48)
    i.NINJA_API_55                           0x0000aa4c   Section        0  BsrGo.o(i.NINJA_API_55)
    i.NINJA_API_56                           0x0000aa82   Section        0  BsrGo.o(i.NINJA_API_56)
    i.NINJA_API_73                           0x0000aaa8   Section        0  BsrGo.o(i.NINJA_API_73)
    i.NINJA_API_75                           0x0000ae68   Section        0  BsrGo.o(i.NINJA_API_75)
    i.__ARM_fpclassify                       0x0000af2c   Section        0  fpclassify.o(i.__ARM_fpclassify)
    i._is_digit                              0x0000af54   Section        0  __printf_wp.o(i._is_digit)
    locale$$code                             0x0000af64   Section       44  lc_numeric_c.o(locale$$code)
    locale$$code                             0x0000af90   Section       44  lc_ctype_c.o(locale$$code)
    x$fpl$dcmpinf                            0x0000afbc   Section       24  dcmpi.o(x$fpl$dcmpinf)
    x$fpl$ddiv                               0x0000afd4   Section      688  ddiv.o(x$fpl$ddiv)
    ddiv_entry                               0x0000afdb   Thumb Code     0  ddiv.o(x$fpl$ddiv)
    x$fpl$dfix                               0x0000b284   Section       94  dfix.o(x$fpl$dfix)
    x$fpl$dflt                               0x0000b2e2   Section       46  dflt_clz.o(x$fpl$dflt)
    x$fpl$dleqf                              0x0000b310   Section      120  dleqf.o(x$fpl$dleqf)
    x$fpl$dmul                               0x0000b388   Section      340  dmul.o(x$fpl$dmul)
    x$fpl$dnaninf                            0x0000b4dc   Section      156  dnaninf.o(x$fpl$dnaninf)
    x$fpl$dretinf                            0x0000b578   Section       12  dretinf.o(x$fpl$dretinf)
    x$fpl$f2d                                0x0000b584   Section       86  f2d.o(x$fpl$f2d)
    x$fpl$fflt                               0x0000b5dc   Section       48  fflt_clz.o(x$fpl$fflt)
    x$fpl$fnaninf                            0x0000b60c   Section      140  fnaninf.o(x$fpl$fnaninf)
    x$fpl$printf1                            0x0000b698   Section        4  printf1.o(x$fpl$printf1)
    x$fpl$printf2                            0x0000b69c   Section        4  printf2.o(x$fpl$printf2)
    .constdata                               0x0000b6a0   Section      252  bsp.o(.constdata)
    x$fpl$usenofp                            0x0000b6a0   Section        0  usenofp.o(x$fpl$usenofp)
    low_priority_table                       0x0000b6a0   Data         156  bsp.o(.constdata)
    init_clk_table                           0x0000b73c   Data          72  bsp.o(.constdata)
    g_init_list                              0x0000b784   Data          24  bsp.o(.constdata)
    .constdata                               0x0000b79c   Section     2324  BsrGo.o(.constdata)
    BSR_1                                    0x0000b79c   Data          80  BsrGo.o(.constdata)
    BsrLori                                  0x0000b7ec   Data        2180  BsrGo.o(.constdata)
    BsrLori_1                                0x0000c070   Data          64  BsrGo.o(.constdata)
    .constdata                               0x0000c0b0   Section       24  idma.o(.constdata)
    .constdata                               0x0000c0c8   Section     2048  BsrBen.o(.constdata)
    BsrKade                                  0x0000c0c8   Data        2048  BsrBen.o(.constdata)
    .constdata                               0x0000c8c8   Section      100  BsrEli.o(.constdata)
    BsrKory                                  0x0000c8c8   Data         100  BsrEli.o(.constdata)
    .constdata                               0x0000c92c   Section        9  BsrJoy.o(.constdata)
    BsrJudy                                  0x0000c92c   Data           9  BsrJoy.o(.constdata)
    .constdata                               0x0000c936   Section      644  BsrAna.o(.constdata)
    BsrKala                                  0x0000c936   Data         644  BsrAna.o(.constdata)
    .constdata                               0x0000cbba   Section     1028  BsrAnn.o(.constdata)
    BsrKira                                  0x0000cbba   Data         258  BsrAnn.o(.constdata)
    BsrKirk                                  0x0000ccbc   Data         258  BsrAnn.o(.constdata)
    BsrKobe                                  0x0000cdbe   Data         512  BsrAnn.o(.constdata)
    .constdata                               0x0000cfc0   Section      512  BsrGuy.o(.constdata)
    BsrKyla                                  0x0000cfc0   Data         512  BsrGuy.o(.constdata)
    .constdata                               0x0000d1c0   Section        8  _printf_wctomb.o(.constdata)
    initial_mbstate                          0x0000d1c0   Data           8  _printf_wctomb.o(.constdata)
    .constdata                               0x0000d1c8   Section       40  _printf_hex_int_ll_ptr.o(.constdata)
    uc_hextab                                0x0000d1c8   Data          20  _printf_hex_int_ll_ptr.o(.constdata)
    lc_hextab                                0x0000d1dc   Data          20  _printf_hex_int_ll_ptr.o(.constdata)
    .constdata                               0x0000d1f0   Section       17  __printf_flags_ss_wp.o(.constdata)
    maptable                                 0x0000d1f0   Data          17  __printf_flags_ss_wp.o(.constdata)
    .constdata                               0x0000d201   Section       38  _printf_fp_hex.o(.constdata)
    lc_hextab                                0x0000d201   Data          19  _printf_fp_hex.o(.constdata)
    uc_hextab                                0x0000d214   Data          19  _printf_fp_hex.o(.constdata)
    .constdata                               0x0000d228   Section      148  bigflt0.o(.constdata)
    tenpwrs_x                                0x0000d228   Data          60  bigflt0.o(.constdata)
    tenpwrs_i                                0x0000d264   Data          64  bigflt0.o(.constdata)
    locale$$data                             0x0000d2ec   Section       28  lc_numeric_c.o(locale$$data)
    __lcnum_c_name                           0x0000d2f0   Data           2  lc_numeric_c.o(locale$$data)
    __lcnum_c_start                          0x0000d2f8   Data           0  lc_numeric_c.o(locale$$data)
    __lcnum_c_point                          0x0000d304   Data           0  lc_numeric_c.o(locale$$data)
    __lcnum_c_thousands                      0x0000d306   Data           0  lc_numeric_c.o(locale$$data)
    __lcnum_c_grouping                       0x0000d307   Data           0  lc_numeric_c.o(locale$$data)
    locale$$data                             0x0000d308   Section      272  lc_ctype_c.o(locale$$data)
    __lcnum_c_end                            0x0000d308   Data           0  lc_numeric_c.o(locale$$data)
    __lcctype_c_name                         0x0000d30c   Data           2  lc_ctype_c.o(locale$$data)
    __lcctype_c_start                        0x0000d314   Data           0  lc_ctype_c.o(locale$$data)
    __lcctype_c_end                          0x0000d418   Data           0  lc_ctype_c.o(locale$$data)
    .data                                    0x18000000   Section      286  main.o(.data)
    .data                                    0x18000120   Section      180  snx_audio_agc.o(.data)
    sumt                                     0x180001c4   Data           4  snx_audio_agc.o(.data)
    sumt_out                                 0x180001c8   Data           4  snx_audio_agc.o(.data)
    sample_cnt                               0x180001cc   Data           2  snx_audio_agc.o(.data)
    conti_cnt                                0x180001ce   Data           2  snx_audio_agc.o(.data)
    prev_gain                                0x180001d0   Data           2  snx_audio_agc.o(.data)
    follow_adc_gain_cnt                      0x180001d2   Data           2  snx_audio_agc.o(.data)
    .data                                    0x180001d4   Section       12  key.o(.data)
    .data                                    0x180001e0   Section        8  led.o(.data)
    .data                                    0x180001e8   Section       10  motor.o(.data)
    .data                                    0x180001f4   Section       22  fun_main.o(.data)
    .data                                    0x1800020c   Section       52  i2c_software_master.o(.data)
    sn_i2c_sw_ch                             0x1800020c   Data           1  i2c_software_master.o(.data)
    I2C_ch_data_table                        0x18000210   Data          12  i2c_software_master.o(.data)
    I2C_ch_mode_table                        0x1800021c   Data          12  i2c_software_master.o(.data)
    I2C_scl_table                            0x18000228   Data          12  i2c_software_master.o(.data)
    I2C_sda_table                            0x18000234   Data          12  i2c_software_master.o(.data)
    .data                                    0x18000240   Section        2  aud_driver.o(.data)
    aud_driver_mode                          0x18000240   Data           1  aud_driver.o(.data)
    aud_driver_i2c                           0x18000241   Data           1  aud_driver.o(.data)
    .data                                    0x18000244   Section        4  i2s4.o(.data)
    temp_reg                                 0x18000244   Data           4  i2s4.o(.data)
    .data                                    0x18000248   Section        8  uart.o(.data)
    g_recv_irq_byte                          0x18000248   Data           8  uart.o(.data)
    .data                                    0x18000250   Section        4  i2c.o(.data)
    g_timeout_count                          0x18000250   Data           4  i2c.o(.data)
    .data                                    0x18000254   Section       12  log_util.o(.data)
    g_dbg_port                               0x18000258   Data           1  log_util.o(.data)
    .data                                    0x18000260   Section        4  idma.o(.data)
    transfer_busy                            0x18000260   Data           4  idma.o(.data)
    .bss                                     0x18000264   Section    78004  main.o(.bss)
    .bss                                     0x18013318   Section       32  motor.o(.bss)
    .bss                                     0x18013338   Section       44  fun_main.o(.bss)
    .bss                                     0x18013364   Section       34  aud_driver.o(.bss)
    AUD_Reg                                  0x18013364   Data          34  aud_driver.o(.bss)
    .bss                                     0x18013388   Section       48  uart.o(.bss)
    .bss                                     0x180133b8   Section       20  gpio.o(.bss)
    g_gpio_base_offset                       0x180133b8   Data          20  gpio.o(.bss)
    .bss                                     0x180133cc   Section      128  log_util.o(.bss)
    g_buffer                                 0x180133cc   Data         128  log_util.o(.bss)
    .bss                                     0x1801344c   Section       96  libspace.o(.bss)
    HEAP                                     0x180134b0   Section    36864  startup.o(HEAP)
    Heap_Mem                                 0x180134b0   Data       36864  startup.o(HEAP)
    STACK                                    0x1801c4b0   Section     4096  startup.o(STACK)
    Stack_Mem                                0x1801c4b0   Data        4096  startup.o(STACK)
    __initial_sp                             0x1801d4b0   Data           0  startup.o(STACK)
    .text                                    0x1801ec00   Section        0  snx_audio_agc.o(.text)
    .text                                    0x1801f538   Section        0  key.o(.text)
    .text                                    0x1801f6a0   Section        0  led.o(.text)
    .text                                    0x1801faf4   Section        0  motor.o(.text)
    .text                                    0x1801fd8c   Section        0  fun_main.o(.text)
    .text                                    0x18020338   Section        0  audio.o(.text)
    .text                                    0x18020478   Section        0  i2c_software_master.o(.text)
    .text                                    0x18020e24   Section        0  aud_driver.o(.text)
    bswap_16                                 0x18020e3f   Thumb Code    12  aud_driver.o(.text)
    SNAUD01_sys_power_up                     0x18021fff   Thumb Code   872  aud_driver.o(.text)
    SNAUD01_dac_power_up                     0x18022367   Thumb Code  2702  aud_driver.o(.text)
    SNAUD01_adc_power_up                     0x18022df5   Thumb Code   742  aud_driver.o(.text)
    SNAUD01_sys_power_down                   0x180230db   Thumb Code   110  aud_driver.o(.text)
    SNAUD01_dac_power_down                   0x18023149   Thumb Code  1792  aud_driver.o(.text)
    SNAUD01_adc_power_down                   0x18023849   Thumb Code   326  aud_driver.o(.text)
    .text                                    0x18024318   Section        0  i2s4.o(.text)
    .text                                    0x18024940   Section        0  uart.o(.text)
    _uart_get_handle                         0x18024941   Thumb Code    18  uart.o(.text)
    _uart_irq_handle                         0x18024953   Thumb Code   244  uart.o(.text)
    _uart_set_freq                           0x18024a47   Thumb Code    58  uart.o(.text)
    .constdata                               0x18025070   Section      420  uart.o(.constdata)
    g_clk_table                              0x18025070   Data         420  uart.o(.constdata)
    .conststring                             0x18025214   Section      143  aud_driver.o(.conststring)
    .ARM.__AT_0x60000000                     0x60000000   Section       72  sonix_load_table.o(.ARM.__AT_0x60000000)
    .ARM.__at_0x60030000                     0x60030000   Section    39572  rd_wr_flash.o(.ARM.__at_0x60030000)
    .ARM.__AT_0x60070000                     0x60070000   Section    56488  bsp.o(.ARM.__AT_0x60070000)
    core1_img                                0x60070000   Data       56488  bsp.o(.ARM.__AT_0x60070000)

    Global Symbols

    Symbol Name                              Value     Ov Type        Size  Object(Section)

    BuildAttributes$$THM_ISAv4$P$D$K$B$S$PE$A:L22UL41UL21$X:L11$S22US41US21$IEEE1$IW$USESV6$~STKCKD$USESV7$~SHL$OTIME$ROPI$IEEEJ$EBA8$UX$STANDARDLIB$REQ8$PRES8$EABIv2 0x00000000   Number         0  anon$$obj.o ABSOLUTE
    __ARM_use_no_argv                        0x00000000   Number         0  main.o ABSOLUTE
    __Vectors                                0x00000000   Data           4  startup.o(RESET)
    _printf_flags                            0x00000000   Number         0  printf_stubs.o ABSOLUTE
    _printf_return_value                     0x00000000   Number         0  printf_stubs.o ABSOLUTE
    _printf_sizespec                         0x00000000   Number         0  printf_stubs.o ABSOLUTE
    _printf_widthprec                        0x00000000   Number         0  printf_stubs.o ABSOLUTE
    __ARM_exceptions_init                     - Undefined Weak Reference
    __alloca_initialize                       - Undefined Weak Reference
    __arm_preinit_                            - Undefined Weak Reference
    __cpp_initialize__aeabi_                  - Undefined Weak Reference
    __cxa_finalize                            - Undefined Weak Reference
    __sigvec_lookup                           - Undefined Weak Reference
    __user_heap_extent                        - Undefined Weak Reference
    _atexit_init                              - Undefined Weak Reference
    _call_atexit_fns                          - Undefined Weak Reference
    _clock_init                               - Undefined Weak Reference
    _fp_trap_init                             - Undefined Weak Reference
    _fp_trap_shutdown                         - Undefined Weak Reference
    _get_lc_collate                           - Undefined Weak Reference
    _get_lc_monetary                          - Undefined Weak Reference
    _get_lc_time                              - Undefined Weak Reference
    _getenv_init                              - Undefined Weak Reference
    _handle_redirection                       - Undefined Weak Reference
    _initio                                   - Undefined Weak Reference
    _mutex_acquire                            - Undefined Weak Reference
    _mutex_free                               - Undefined Weak Reference
    _mutex_release                            - Undefined Weak Reference
    _printf_mbtowc                            - Undefined Weak Reference
    _printf_wc                                - Undefined Weak Reference
    _rand_init                                - Undefined Weak Reference
    _signal_finish                            - Undefined Weak Reference
    _signal_init                              - Undefined Weak Reference
    _terminateio                              - Undefined Weak Reference
    __Vectors_End                            0x00000124   Data           0  startup.o(RESET)
    __Vectors_Size                           0x00000124   Number         0  startup.o ABSOLUTE
    __main                                   0x00000125   Thumb Code     8  __main.o(!!!main)
    __scatterload                            0x0000012d   Thumb Code     0  __scatter.o(!!!scatter)
    __scatterload_rt2                        0x0000012d   Thumb Code    44  __scatter.o(!!!scatter)
    __scatterload_rt2_thumb_only             0x0000012d   Thumb Code     0  __scatter.o(!!!scatter)
    __scatterload_null                       0x0000013b   Thumb Code     0  __scatter.o(!!!scatter)
    __scatterload_copy                       0x00000161   Thumb Code    26  __scatter_copy.o(!!handler_copy)
    __scatterload_zeroinit                   0x0000017d   Thumb Code    28  __scatter_zi.o(!!handler_zi)
    _printf_n                                0x00000199   Thumb Code     0  _printf_n.o(.ARM.Collect$$_printf_percent$$00000001)
    _printf_percent                          0x00000199   Thumb Code     0  _printf_percent.o(.ARM.Collect$$_printf_percent$$00000000)
    _printf_p                                0x0000019f   Thumb Code     0  _printf_p.o(.ARM.Collect$$_printf_percent$$00000002)
    _printf_f                                0x000001a5   Thumb Code     0  _printf_f.o(.ARM.Collect$$_printf_percent$$00000003)
    _printf_e                                0x000001ab   Thumb Code     0  _printf_e.o(.ARM.Collect$$_printf_percent$$00000004)
    _printf_g                                0x000001b1   Thumb Code     0  _printf_g.o(.ARM.Collect$$_printf_percent$$00000005)
    _printf_a                                0x000001b7   Thumb Code     0  _printf_a.o(.ARM.Collect$$_printf_percent$$00000006)
    _printf_ll                               0x000001bd   Thumb Code     0  _printf_ll.o(.ARM.Collect$$_printf_percent$$00000007)
    _printf_i                                0x000001c7   Thumb Code     0  _printf_i.o(.ARM.Collect$$_printf_percent$$00000008)
    _printf_d                                0x000001cd   Thumb Code     0  _printf_d.o(.ARM.Collect$$_printf_percent$$00000009)
    _printf_u                                0x000001d3   Thumb Code     0  _printf_u.o(.ARM.Collect$$_printf_percent$$0000000A)
    _printf_o                                0x000001d9   Thumb Code     0  _printf_o.o(.ARM.Collect$$_printf_percent$$0000000B)
    _printf_x                                0x000001df   Thumb Code     0  _printf_x.o(.ARM.Collect$$_printf_percent$$0000000C)
    _printf_lli                              0x000001e5   Thumb Code     0  _printf_lli.o(.ARM.Collect$$_printf_percent$$0000000D)
    _printf_lld                              0x000001eb   Thumb Code     0  _printf_lld.o(.ARM.Collect$$_printf_percent$$0000000E)
    _printf_llu                              0x000001f1   Thumb Code     0  _printf_llu.o(.ARM.Collect$$_printf_percent$$0000000F)
    _printf_llo                              0x000001f7   Thumb Code     0  _printf_llo.o(.ARM.Collect$$_printf_percent$$00000010)
    _printf_llx                              0x000001fd   Thumb Code     0  _printf_llx.o(.ARM.Collect$$_printf_percent$$00000011)
    _printf_l                                0x00000203   Thumb Code     0  _printf_l.o(.ARM.Collect$$_printf_percent$$00000012)
    _printf_c                                0x0000020d   Thumb Code     0  _printf_c.o(.ARM.Collect$$_printf_percent$$00000013)
    _printf_s                                0x00000213   Thumb Code     0  _printf_s.o(.ARM.Collect$$_printf_percent$$00000014)
    _printf_lc                               0x00000219   Thumb Code     0  _printf_lc.o(.ARM.Collect$$_printf_percent$$00000015)
    _printf_ls                               0x0000021f   Thumb Code     0  _printf_ls.o(.ARM.Collect$$_printf_percent$$00000016)
    _printf_percent_end                      0x00000225   Thumb Code     0  _printf_percent_end.o(.ARM.Collect$$_printf_percent$$00000017)
    __rt_lib_init                            0x00000229   Thumb Code     0  libinit.o(.ARM.Collect$$libinit$$00000000)
    __rt_lib_init_fp_1                       0x0000022b   Thumb Code     0  libinit2.o(.ARM.Collect$$libinit$$00000002)
    __rt_lib_init_heap_2                     0x0000022b   Thumb Code     0  libinit2.o(.ARM.Collect$$libinit$$00000005)
    __rt_lib_init_preinit_1                  0x0000022b   Thumb Code     0  libinit2.o(.ARM.Collect$$libinit$$00000004)
    __rt_lib_init_heap_1                     0x00000233   Thumb Code     0  libinit2.o(.ARM.Collect$$libinit$$0000000A)
    __rt_lib_init_lc_common                  0x00000233   Thumb Code     0  libinit2.o(.ARM.Collect$$libinit$$0000000F)
    __rt_lib_init_rand_1                     0x00000233   Thumb Code     0  libinit2.o(.ARM.Collect$$libinit$$0000000E)
    __rt_lib_init_user_alloc_1               0x00000233   Thumb Code     0  libinit2.o(.ARM.Collect$$libinit$$0000000C)
    __rt_lib_init_lc_collate_1               0x00000239   Thumb Code     0  libinit2.o(.ARM.Collect$$libinit$$00000011)
    __rt_lib_init_lc_ctype_2                 0x00000239   Thumb Code     0  libinit2.o(.ARM.Collect$$libinit$$00000012)
    __rt_lib_init_lc_ctype_1                 0x00000245   Thumb Code     0  libinit2.o(.ARM.Collect$$libinit$$00000013)
    __rt_lib_init_lc_monetary_1              0x00000245   Thumb Code     0  libinit2.o(.ARM.Collect$$libinit$$00000015)
    __rt_lib_init_lc_numeric_2               0x00000245   Thumb Code     0  libinit2.o(.ARM.Collect$$libinit$$00000016)
    __rt_lib_init_alloca_1                   0x0000024f   Thumb Code     0  libinit2.o(.ARM.Collect$$libinit$$0000002E)
    __rt_lib_init_argv_1                     0x0000024f   Thumb Code     0  libinit2.o(.ARM.Collect$$libinit$$0000002C)
    __rt_lib_init_atexit_1                   0x0000024f   Thumb Code     0  libinit2.o(.ARM.Collect$$libinit$$0000001B)
    __rt_lib_init_clock_1                    0x0000024f   Thumb Code     0  libinit2.o(.ARM.Collect$$libinit$$00000021)
    __rt_lib_init_cpp_1                      0x0000024f   Thumb Code     0  libinit2.o(.ARM.Collect$$libinit$$00000032)
    __rt_lib_init_exceptions_1               0x0000024f   Thumb Code     0  libinit2.o(.ARM.Collect$$libinit$$00000030)
    __rt_lib_init_fp_trap_1                  0x0000024f   Thumb Code     0  libinit2.o(.ARM.Collect$$libinit$$0000001F)
    __rt_lib_init_getenv_1                   0x0000024f   Thumb Code     0  libinit2.o(.ARM.Collect$$libinit$$00000023)
    __rt_lib_init_lc_numeric_1               0x0000024f   Thumb Code     0  libinit2.o(.ARM.Collect$$libinit$$00000017)
    __rt_lib_init_lc_time_1                  0x0000024f   Thumb Code     0  libinit2.o(.ARM.Collect$$libinit$$00000019)
    __rt_lib_init_return                     0x0000024f   Thumb Code     0  libinit2.o(.ARM.Collect$$libinit$$00000033)
    __rt_lib_init_signal_1                   0x0000024f   Thumb Code     0  libinit2.o(.ARM.Collect$$libinit$$0000001D)
    __rt_lib_init_stdio_1                    0x0000024f   Thumb Code     0  libinit2.o(.ARM.Collect$$libinit$$00000025)
    __rt_lib_shutdown                        0x00000251   Thumb Code     0  libshutdown.o(.ARM.Collect$$libshutdown$$00000000)
    __rt_lib_shutdown_cpp_1                  0x00000253   Thumb Code     0  libshutdown2.o(.ARM.Collect$$libshutdown$$00000002)
    __rt_lib_shutdown_fp_trap_1              0x00000253   Thumb Code     0  libshutdown2.o(.ARM.Collect$$libshutdown$$00000007)
    __rt_lib_shutdown_heap_1                 0x00000253   Thumb Code     0  libshutdown2.o(.ARM.Collect$$libshutdown$$0000000F)
    __rt_lib_shutdown_return                 0x00000253   Thumb Code     0  libshutdown2.o(.ARM.Collect$$libshutdown$$00000010)
    __rt_lib_shutdown_signal_1               0x00000253   Thumb Code     0  libshutdown2.o(.ARM.Collect$$libshutdown$$0000000A)
    __rt_lib_shutdown_stdio_1                0x00000253   Thumb Code     0  libshutdown2.o(.ARM.Collect$$libshutdown$$00000004)
    __rt_lib_shutdown_user_alloc_1           0x00000253   Thumb Code     0  libshutdown2.o(.ARM.Collect$$libshutdown$$0000000C)
    __rt_entry                               0x00000255   Thumb Code     0  __rtentry.o(.ARM.Collect$$rtentry$$00000000)
    __rt_entry_presh_1                       0x00000255   Thumb Code     0  __rtentry2.o(.ARM.Collect$$rtentry$$00000002)
    __rt_entry_sh                            0x00000255   Thumb Code     0  __rtentry4.o(.ARM.Collect$$rtentry$$00000004)
    __rt_entry_li                            0x0000025b   Thumb Code     0  __rtentry2.o(.ARM.Collect$$rtentry$$0000000A)
    __rt_entry_postsh_1                      0x0000025b   Thumb Code     0  __rtentry2.o(.ARM.Collect$$rtentry$$00000009)
    __rt_entry_main                          0x0000025f   Thumb Code     0  __rtentry2.o(.ARM.Collect$$rtentry$$0000000D)
    __rt_entry_postli_1                      0x0000025f   Thumb Code     0  __rtentry2.o(.ARM.Collect$$rtentry$$0000000C)
    __rt_exit                                0x00000267   Thumb Code     0  rtexit.o(.ARM.Collect$$rtexit$$00000000)
    __rt_exit_ls                             0x00000269   Thumb Code     0  rtexit2.o(.ARM.Collect$$rtexit$$00000003)
    __rt_exit_prels_1                        0x00000269   Thumb Code     0  rtexit2.o(.ARM.Collect$$rtexit$$00000002)
    __rt_exit_exit                           0x0000026d   Thumb Code     0  rtexit2.o(.ARM.Collect$$rtexit$$00000004)
    Gain_Setting                             0x00000275   Thumb Code    94  main.o(.text)
    _maybe_terminate_alloc                   0x00000275   Thumb Code     0  maybetermalloc1.o(.emb_text)
    Alg_Process_PLDCore                      0x000002d3   Thumb Code    98  main.o(.text)
    Voice_Recognition_Result                 0x00000335   Thumb Code    44  main.o(.text)
    Voice_Recognition_Progress               0x00000361   Thumb Code   892  main.o(.text)
    Is_ADC_Time_Up                           0x000006dd   Thumb Code    94  main.o(.text)
    UnpackBin                                0x0000073b   Thumb Code   104  main.o(.text)
    Voice_Recognition_Init                   0x000007a3   Thumb Code   192  main.o(.text)
    Alg_Settings                             0x00000863   Thumb Code   106  main.o(.text)
    NR_Init                                  0x000008cd   Thumb Code    42  main.o(.text)
    Alg_Process_PLDInit                      0x000008f7   Thumb Code    74  main.o(.text)
    Alg_Get_Wram_Size                        0x00000941   Thumb Code    86  main.o(.text)
    ALG_Init                                 0x00000997   Thumb Code    64  main.o(.text)
    AGC_Init                                 0x000009d7   Thumb Code    62  main.o(.text)
    Record_Start                             0x00000a15   Thumb Code    68  main.o(.text)
    main                                     0x00000a59   Thumb Code   334  main.o(.text)
    get_a_frame_length                       0x00000ba7   Thumb Code    38  main.o(.text)
    SysTick_Handler                          0x00000bcd   Thumb Code   134  main.o(.text)
    HardFault_Handler                        0x00000dd3   Thumb Code    54  bsp.o(.text)
    System_Init                              0x00000e09   Thumb Code   148  bsp.o(.text)
    Reset_Handler                            0x00000ed1   Thumb Code    22  startup.o(.text)
    WKP_IRQHandler                           0x00000ee7   Thumb Code     2  startup.o(.text)
    NMI_Handler                              0x00000ee9   Thumb Code     2  startup.o(.text)
    MemManage_Handler                        0x00000eed   Thumb Code     2  startup.o(.text)
    BusFault_Handler                         0x00000eef   Thumb Code     2  startup.o(.text)
    UsageFault_Handler                       0x00000ef1   Thumb Code     2  startup.o(.text)
    SVC_Handler                              0x00000ef3   Thumb Code     2  startup.o(.text)
    DebugMon_Handler                         0x00000ef5   Thumb Code     2  startup.o(.text)
    PendSV_Handler                           0x00000ef7   Thumb Code     2  startup.o(.text)
    CIS_DMA_IRQHandler                       0x00000efb   Thumb Code     0  startup.o(.text)
    CIS_VSYNC_IRQHandler                     0x00000efb   Thumb Code     0  startup.o(.text)
    CRC16_IRQHandler                         0x00000efb   Thumb Code     0  startup.o(.text)
    CSC_DMA_IN_IRQHandler                    0x00000efb   Thumb Code     0  startup.o(.text)
    CSC_DMA_OUT_IRQHandler                   0x00000efb   Thumb Code     0  startup.o(.text)
    CT32B0_IRQHandler                        0x00000efb   Thumb Code     0  startup.o(.text)
    CT32B1_IRQHandler                        0x00000efb   Thumb Code     0  startup.o(.text)
    CT32B2_IRQHandler                        0x00000efb   Thumb Code     0  startup.o(.text)
    CT32B3_IRQHandler                        0x00000efb   Thumb Code     0  startup.o(.text)
    CT32B4_IRQHandler                        0x00000efb   Thumb Code     0  startup.o(.text)
    CT32B5_IRQHandler                        0x00000efb   Thumb Code     0  startup.o(.text)
    CT32B6_IRQHandler                        0x00000efb   Thumb Code     0  startup.o(.text)
    CT32B7_IRQHandler                        0x00000efb   Thumb Code     0  startup.o(.text)
    Core0_Issue_IRQHandler                   0x00000efb   Thumb Code     0  startup.o(.text)
    Core1_Issue_IRQHandler                   0x00000efb   Thumb Code     0  startup.o(.text)
    GPIO0_IRQHandler                         0x00000efb   Thumb Code     0  startup.o(.text)
    GPIO1_IRQHandler                         0x00000efb   Thumb Code     0  startup.o(.text)
    GPIO2_IRQHandler                         0x00000efb   Thumb Code     0  startup.o(.text)
    GPIO4_IRQHandler                         0x00000efb   Thumb Code     0  startup.o(.text)
    I2C0_IRQHandler                          0x00000efb   Thumb Code     0  startup.o(.text)
    I2C1_IRQHandler                          0x00000efb   Thumb Code     0  startup.o(.text)
    I2C2_IRQHandler                          0x00000efb   Thumb Code     0  startup.o(.text)
    I2S0_DMA_IRQHandler                      0x00000efb   Thumb Code     0  startup.o(.text)
    I2S1_DMA_IRQHandler                      0x00000efb   Thumb Code     0  startup.o(.text)
    I2S2_DMA_IRQHandler                      0x00000efb   Thumb Code     0  startup.o(.text)
    I2S3_DMA_IRQHandler                      0x00000efb   Thumb Code     0  startup.o(.text)
    I2S4_IRQHandler                          0x00000efb   Thumb Code     0  startup.o(.text)
    IDMA0_IRQHandler                         0x00000efb   Thumb Code     0  startup.o(.text)
    IDMA1_IRQHandler                         0x00000efb   Thumb Code     0  startup.o(.text)
    JPEG_DEC_DMA_IN_IRQHandler               0x00000efb   Thumb Code     0  startup.o(.text)
    JPEG_DEC_DMA_OUT_IRQHandler              0x00000efb   Thumb Code     0  startup.o(.text)
    JPEG_ENC_DMA_IN_IRQHandler               0x00000efb   Thumb Code     0  startup.o(.text)
    JPEG_ENC_DMA_OUT_IRQHandler              0x00000efb   Thumb Code     0  startup.o(.text)
    JPEG_ENC_END_IRQHandler                  0x00000efb   Thumb Code     0  startup.o(.text)
    NFECC_IRQHandler                         0x00000efb   Thumb Code     0  startup.o(.text)
    PPU_HBLK_IRQHandler                      0x00000efb   Thumb Code     0  startup.o(.text)
    PPU_VBLK_IRQHandler                      0x00000efb   Thumb Code     0  startup.o(.text)
    RTC_IRQHandler                           0x00000efb   Thumb Code     0  startup.o(.text)
    SAR_ADC_IRQHandler                       0x00000efb   Thumb Code     0  startup.o(.text)
    SCRIPT_IRQHandler                        0x00000efb   Thumb Code     0  startup.o(.text)
    SDIO_DMA_IRQHandler                      0x00000efb   Thumb Code     0  startup.o(.text)
    SDIO_IRQHandler                          0x00000efb   Thumb Code     0  startup.o(.text)
    SDNF_DMA_IRQHandler                      0x00000efb   Thumb Code     0  startup.o(.text)
    SPI0_DMA_IRQHandler                      0x00000efb   Thumb Code     0  startup.o(.text)
    SPI0_ECC_IRQHandler                      0x00000efb   Thumb Code     0  startup.o(.text)
    SPI0_IRQHandler                          0x00000efb   Thumb Code     0  startup.o(.text)
    SPI1_DMA_IRQHandler                      0x00000efb   Thumb Code     0  startup.o(.text)
    SPI1_ECC_IRQHandler                      0x00000efb   Thumb Code     0  startup.o(.text)
    SPI1_IRQHandler                          0x00000efb   Thumb Code     0  startup.o(.text)
    USBDEV_IRQHandler                        0x00000efb   Thumb Code     0  startup.o(.text)
    USB_HOST0_IRQHandler                     0x00000efb   Thumb Code     0  startup.o(.text)
    USB_HOST1_IRQHandler                     0x00000efb   Thumb Code     0  startup.o(.text)
    USB_suspend_IRQHandler                   0x00000efb   Thumb Code     0  startup.o(.text)
    __user_initial_stackheap                 0x00000efd   Thumb Code    10  startup.o(.text)
    ADC_Set_Channel_Mode                     0x00000f39   Thumb Code    40  codec.o(.text)
    ADC_Turn_On                              0x00000f61   Thumb Code    90  codec.o(.text)
    ADC_Pause_Switch                         0x00000fbb   Thumb Code    48  codec.o(.text)
    ADC_Set_DMA_Address_and_Length           0x00000feb   Thumb Code    66  codec.o(.text)
    Stack_Size                               0x00001000   Number         0  startup.o ABSOLUTE
    ADC_Get_Rx_Index                         0x0000102d   Thumb Code    24  codec.o(.text)
    ADC_Enable                               0x00001045   Thumb Code    70  codec.o(.text)
    ADC_Disable                              0x0000108b   Thumb Code    26  codec.o(.text)
    DAC_Set_Channel_Mode                     0x000010a5   Thumb Code    40  codec.o(.text)
    DAC_Mute_Switch                          0x000010cd   Thumb Code    48  codec.o(.text)
    DAC_Turn_On                              0x000010fd   Thumb Code    90  codec.o(.text)
    DAC_Set_DMA_Address_and_Length           0x00001157   Thumb Code    66  codec.o(.text)
    DAC_Get_Tx_Index                         0x00001199   Thumb Code    24  codec.o(.text)
    DAC_Pause_Switch                         0x000011b1   Thumb Code    48  codec.o(.text)
    DAC_Enable                               0x000011e1   Thumb Code    70  codec.o(.text)
    DAC_Disable                              0x00001227   Thumb Code    26  codec.o(.text)
    _gpio_get_handle                         0x00001267   Thumb Code   114  gpio.o(.text)
    GPIO_SetPin                              0x000012d9   Thumb Code   396  gpio.o(.text)
    GPIO_SetPinData                          0x00001465   Thumb Code    84  gpio.o(.text)
    GPIO_GetPin                              0x000014b9   Thumb Code    52  gpio.o(.text)
    GPIO_GetPinCfg                           0x000014ed   Thumb Code    94  gpio.o(.text)
    GPIO_TogglePin                           0x0000154b   Thumb Code    54  gpio.o(.text)
    GPIO_SetPort                             0x00001581   Thumb Code    76  gpio.o(.text)
    GPIO_GetPort                             0x000015cd   Thumb Code    82  gpio.o(.text)
    GPIO_Irq_Init                            0x0000161f   Thumb Code   102  gpio.o(.text)
    GPIO_Irq_Deinit                          0x00001685   Thumb Code    72  gpio.o(.text)
    GPIO_Irq_SetPin                          0x000016cd   Thumb Code   424  gpio.o(.text)
    GPIO_Irq_GetPinIrq                       0x00001875   Thumb Code    56  gpio.o(.text)
    GPIO_Irq_GetAllPinIrq                    0x000018ad   Thumb Code    42  gpio.o(.text)
    GPIO_Irq_ClearPinIrq                     0x000018d7   Thumb Code    60  gpio.o(.text)
    GPIO_ChangeRegBase                       0x00001913   Thumb Code    98  gpio.o(.text)
    GPIO_SetPinDriving                       0x00001975   Thumb Code   114  gpio.o(.text)
    GPIO_GetVersion                          0x000019e7   Thumb Code     4  gpio.o(.text)
    I2C_Set_Start_Condition                  0x00001ad5   Thumb Code    24  i2c.o(.text)
    I2C_Clear_Flag                           0x00001aed   Thumb Code    26  i2c.o(.text)
    I2C_Enable                               0x00001b15   Thumb Code    26  i2c.o(.text)
    I2C_Disable                              0x00001b39   Thumb Code    22  i2c.o(.text)
    I2C_Read_Status                          0x00001b4f   Thumb Code    16  i2c.o(.text)
    I2C_Receive_Data                         0x00001b5f   Thumb Code    18  i2c.o(.text)
    I2C_Send_ACK                             0x00001b71   Thumb Code    24  i2c.o(.text)
    I2C_Send_Data                            0x00001b89   Thumb Code    18  i2c.o(.text)
    I2C_Send_NACK                            0x00001b9b   Thumb Code    24  i2c.o(.text)
    I2C_Set_Stop_Condition                   0x00001bb3   Thumb Code    24  i2c.o(.text)
    I2C_SlaveRxFIFO_Clear                    0x00001bcb   Thumb Code    26  i2c.o(.text)
    I2C_SlaveTxFIFO_Clear                    0x00001be5   Thumb Code    26  i2c.o(.text)
    I2C_SlaveFIFO_EN                         0x00001c15   Thumb Code    66  i2c.o(.text)
    I2C_SlaveFIFO_Disable                    0x00001c57   Thumb Code    22  i2c.o(.text)
    I2C_SlaveFIFO_THD                        0x00001c6d   Thumb Code    24  i2c.o(.text)
    I2C_Initial                              0x00001c85   Thumb Code   292  i2c.o(.text)
    I2C_Deinit                               0x00001da9   Thumb Code    22  i2c.o(.text)
    I2C_Default_Init                         0x00001dbf   Thumb Code    98  i2c.o(.text)
    I2C_Master_Send                          0x00001e21   Thumb Code   206  i2c.o(.text)
    I2C_Master_Send_10bit                    0x00001eef   Thumb Code   238  i2c.o(.text)
    I2C_Master_Recv                          0x00001fdd   Thumb Code   212  i2c.o(.text)
    I2C_Master_Recv_10bit                    0x000020b1   Thumb Code   324  i2c.o(.text)
    I2C_Slave_Send                           0x000021f5   Thumb Code   182  i2c.o(.text)
    I2C_Slave_Recv                           0x000022ab   Thumb Code   144  i2c.o(.text)
    I2C_Slave_Hit_Status                     0x0000233b   Thumb Code    40  i2c.o(.text)
    I2C_GetVersion                           0x00002363   Thumb Code     4  i2c.o(.text)
    SPIFC_Init                               0x00002413   Thumb Code    62  spifc.o(.text)
    SPIFC_Deinit                             0x00002451   Thumb Code    48  spifc.o(.text)
    SPIFC_Read                               0x00002481   Thumb Code   216  spifc.o(.text)
    SPIFC_Write                              0x00002559   Thumb Code   224  spifc.o(.text)
    SPIFC_ReadWithDma                        0x00002639   Thumb Code   180  spifc.o(.text)
    SPIFC_WriteWithDma                       0x000026ed   Thumb Code   178  spifc.o(.text)
    SPIFC_Erase                              0x0000279f   Thumb Code   122  spifc.o(.text)
    SPIFC_RWStatus                           0x00002819   Thumb Code    28  spifc.o(.text)
    SPIFC_SetQuadMode                        0x00002835   Thumb Code    32  spifc.o(.text)
    SPIFC_SetAddrMode                        0x00002855   Thumb Code    28  spifc.o(.text)
    SPIFC_GetFactoryId                       0x00002871   Thumb Code    78  spifc.o(.text)
    SPIFC_GetVersion                         0x000028bf   Thumb Code     4  spifc.o(.text)
    LOG_Util_GetVersion                      0x000028fd   Thumb Code     4  log_util.o(.text)
    LOG_Driver_Enable                        0x00002901   Thumb Code    16  log_util.o(.text)
    LOG_Driver_Disable                       0x00002911   Thumb Code    16  log_util.o(.text)
    LOG_Driver_Init                          0x00002921   Thumb Code    48  log_util.o(.text)
    printf_uart                              0x00002951   Thumb Code    84  log_util.o(.text)
    fprintf_uart                             0x000029a5   Thumb Code    34  log_util.o(.text)
    printf_swo                               0x000029c7   Thumb Code   108  log_util.o(.text)
    fprintf_swo                              0x00002a33   Thumb Code    34  log_util.o(.text)
    getchar_swo                              0x00002a55   Thumb Code    52  log_util.o(.text)
    Timer_Reset                              0x00002b09   Thumb Code   116  timer_pwm.o(.text)
    Timer_SetMatchValue                      0x00002b7d   Thumb Code   116  timer_pwm.o(.text)
    Timer_SetMatchOperation                  0x00002bf1   Thumb Code   118  timer_pwm.o(.text)
    TimerCap_SetSensing                      0x00002c67   Thumb Code    62  timer_pwm.o(.text)
    TimerCap_SetConfiguration                0x00002ca5   Thumb Code   142  timer_pwm.o(.text)
    TimerCap_GetSnapshot                     0x00002d33   Thumb Code    40  timer_pwm.o(.text)
    Timer_Launch                             0x00002d5b   Thumb Code    90  timer_pwm.o(.text)
    Timer_GetCount                           0x00002db5   Thumb Code    64  timer_pwm.o(.text)
    Timer_GetIrqStatus                       0x00002df5   Thumb Code    60  timer_pwm.o(.text)
    Timer_GetIrqAllStatus                    0x00002e31   Thumb Code    42  timer_pwm.o(.text)
    Timer_ClearIrq                           0x00002e5b   Thumb Code    56  timer_pwm.o(.text)
    TimerPwm_Reset                           0x00002e93   Thumb Code   346  timer_pwm.o(.text)
    TimerPwm_Launch                          0x00002fed   Thumb Code    12  timer_pwm.o(.text)
    Timer_GetVersion                         0x00002ff9   Thumb Code     4  timer_pwm.o(.text)
    _SAR_ADC_Enable                          0x00003035   Thumb Code    16  sar_adc.o(.text)
    _SAR_ADC_Disable                         0x00003045   Thumb Code    12  sar_adc.o(.text)
    _SAR_ADC_Start                           0x00003051   Thumb Code    14  sar_adc.o(.text)
    _SAR_ADC_Stop                            0x0000305f   Thumb Code    12  sar_adc.o(.text)
    SAR_ADC_status                           0x0000306b   Thumb Code    10  sar_adc.o(.text)
    _SAR_ADC_Channel_Sel                     0x00003075   Thumb Code    14  sar_adc.o(.text)
    _SAR_ADC_ClockSource                     0x00003083   Thumb Code    14  sar_adc.o(.text)
    _SAR_ADC_ClockRate                       0x00003091   Thumb Code    14  sar_adc.o(.text)
    _SAR_ADC_S_MODE                          0x0000309f   Thumb Code    14  sar_adc.o(.text)
    SAR_ADC_DATA                             0x000030ad   Thumb Code    10  sar_adc.o(.text)
    SAR_ADC_DATA_valid                       0x000030b7   Thumb Code    26  sar_adc.o(.text)
    SAR_ADC_Enable                           0x000030d1   Thumb Code     8  sar_adc.o(.text)
    SAR_ADC_Disable                          0x000030d9   Thumb Code     8  sar_adc.o(.text)
    SAR_ADC_Start                            0x000030e1   Thumb Code     8  sar_adc.o(.text)
    SAR_ADC_Stop                             0x000030e9   Thumb Code     8  sar_adc.o(.text)
    SAR_ADC_init                             0x000030f1   Thumb Code    30  sar_adc.o(.text)
    I2S_Enable                               0x0000313f   Thumb Code    28  i2s.o(.text)
    I2S_MODE                                 0x0000315b   Thumb Code    26  i2s.o(.text)
    I2S_Tx_Enable                            0x00003175   Thumb Code    46  i2s.o(.text)
    I2S_Rx_Enable                            0x000031a3   Thumb Code    42  i2s.o(.text)
    I2S_Disable                              0x000031cd   Thumb Code    24  i2s.o(.text)
    I2S_Set_Ch_Len                           0x000031e5   Thumb Code    26  i2s.o(.text)
    I2S_Set_Data_Len                         0x000031ff   Thumb Code    26  i2s.o(.text)
    I2S_Set_Format                           0x00003219   Thumb Code    26  i2s.o(.text)
    I2S_Set_MONO_STEREO                      0x00003233   Thumb Code    26  i2s.o(.text)
    I2S_SEL_IMCLK                            0x0000324d   Thumb Code    10  i2s.o(.text)
    I2S_SET_BCLKDIV                          0x00003257   Thumb Code    10  i2s.o(.text)
    I2S_Set_BCLK                             0x000033e5   Thumb Code    84  i2s.o(.text)
    I2S_Get_Rx_Toggle_IRQ                    0x00003439   Thumb Code    22  i2s.o(.text)
    I2S_Get_Tx_Toggle_IRQ                    0x0000344f   Thumb Code    22  i2s.o(.text)
    I2S_Set_Rx_Toggle_IRQ                    0x00003465   Thumb Code   210  i2s.o(.text)
    I2S_Set_Tx_Toggle_IRQ                    0x00003537   Thumb Code   194  i2s.o(.text)
    I2S_Set_DMA_Len                          0x000035f9   Thumb Code    26  i2s.o(.text)
    I2S_Set_TxBuf1_Addr                      0x00003613   Thumb Code    20  i2s.o(.text)
    I2S_Get_TxBuf1_Addr                      0x00003627   Thumb Code    18  i2s.o(.text)
    I2S_Set_TxBuf2_Offset                    0x00003639   Thumb Code    20  i2s.o(.text)
    I2S_Get_TxBuf_Idx                        0x0000364d   Thumb Code    18  i2s.o(.text)
    I2S_Set_RxBuf1_Addr                      0x0000365f   Thumb Code    20  i2s.o(.text)
    I2S_Get_RxBuf1_Addr                      0x00003673   Thumb Code    18  i2s.o(.text)
    I2S_Set_RxBuf2_Offset                    0x00003685   Thumb Code    20  i2s.o(.text)
    I2S_Get_RxBuf_Idx                        0x00003699   Thumb Code    18  i2s.o(.text)
    I2S_Pause                                0x000036ab   Thumb Code    28  i2s.o(.text)
    I2S_Resume                               0x000036c7   Thumb Code    24  i2s.o(.text)
    I2S_Start                                0x000036df   Thumb Code    26  i2s.o(.text)
    I2S_Mute                                 0x000036f9   Thumb Code    26  i2s.o(.text)
    I2S_UnMute                               0x00003713   Thumb Code    24  i2s.o(.text)
    I2S_Stop                                 0x0000372b   Thumb Code    24  i2s.o(.text)
    I2S_Init                                 0x00003743   Thumb Code   172  i2s.o(.text)
    I2S_GetVersion                           0x000037ef   Thumb Code     4  i2s.o(.text)
    ExtMem_Set_Burst_Num                     0x00003839   Thumb Code    58  idma.o(.text)
    IDMA_Set_Burst_Unit                      0x000039b3   Thumb Code    48  idma.o(.text)
    IDMA_Start                               0x00003b33   Thumb Code   198  idma.o(.text)
    IDMA_Restart                             0x00003bf9   Thumb Code    96  idma.o(.text)
    IDMA_Stop                                0x00003c59   Thumb Code    28  idma.o(.text)
    IDMA_Get_Cutrrent_Length                 0x00003c75   Thumb Code    16  idma.o(.text)
    IDMA_Extra_Config                        0x00003c85   Thumb Code   170  idma.o(.text)
    IDMA_Get_Status                          0x00003d2f   Thumb Code    44  idma.o(.text)
    IDMA_GetVersion                          0x00003d5b   Thumb Code     4  idma.o(.text)
    malloc                                   0x00003d71   Thumb Code    94  h1_alloc.o(.text)
    free                                     0x00003dcf   Thumb Code    78  h1_free.o(.text)
    vsnprintf                                0x00003e1d   Thumb Code    48  vsnprintf.o(.text)
    __aeabi_memcpy4                          0x00003e51   Thumb Code     0  rt_memcpy_w.o(.text)
    __aeabi_memcpy8                          0x00003e51   Thumb Code     0  rt_memcpy_w.o(.text)
    __rt_memcpy_w                            0x00003e51   Thumb Code   100  rt_memcpy_w.o(.text)
    _memcpy_lastbytes_aligned                0x00003e99   Thumb Code     0  rt_memcpy_w.o(.text)
    __aeabi_memclr                           0x00003eb5   Thumb Code     0  rt_memclr.o(.text)
    __rt_memclr                              0x00003eb5   Thumb Code    68  rt_memclr.o(.text)
    _memset                                  0x00003eb9   Thumb Code     0  rt_memclr.o(.text)
    __aeabi_memclr4                          0x00003ef9   Thumb Code     0  rt_memclr_w.o(.text)
    __aeabi_memclr8                          0x00003ef9   Thumb Code     0  rt_memclr_w.o(.text)
    __rt_memclr_w                            0x00003ef9   Thumb Code    78  rt_memclr_w.o(.text)
    _memset_w                                0x00003efd   Thumb Code     0  rt_memclr_w.o(.text)
    __use_two_region_memory                  0x00003f47   Thumb Code     2  heapauxi.o(.text)
    __rt_heap_escrow                         0x00003f49   Thumb Code     2  heapauxi.o(.text)
    __rt_heap_expand                         0x00003f4b   Thumb Code     2  heapauxi.o(.text)
    __rt_heap_descriptor                     0x00003f4d   Thumb Code     8  rt_heap_descriptor_intlibspace.o(.text)
    __use_no_heap                            0x00003f55   Thumb Code     2  hguard.o(.text)
    __heap$guard                             0x00003f57   Thumb Code     2  hguard.o(.text)
    _terminate_user_alloc                    0x00003f59   Thumb Code     2  init_alloc.o(.text)
    _init_user_alloc                         0x00003f5b   Thumb Code     2  init_alloc.o(.text)
    __Heap_Full                              0x00003f5d   Thumb Code    34  init_alloc.o(.text)
    __Heap_Broken                            0x00003f7f   Thumb Code     6  init_alloc.o(.text)
    _init_alloc                              0x00003f85   Thumb Code    94  init_alloc.o(.text)
    __Heap_Initialize                        0x00003fe3   Thumb Code    10  h1_init.o(.text)
    __Heap_DescSize                          0x00003fed   Thumb Code     4  h1_init.o(.text)
    _printf_pre_padding                      0x00003ff1   Thumb Code    44  _printf_pad.o(.text)
    _printf_post_padding                     0x0000401d   Thumb Code    34  _printf_pad.o(.text)
    _printf_truncate_signed                  0x0000403f   Thumb Code    18  _printf_truncate.o(.text)
    _printf_truncate_unsigned                0x00004051   Thumb Code    18  _printf_truncate.o(.text)
    _printf_str                              0x00004063   Thumb Code    82  _printf_str.o(.text)
    _printf_int_dec                          0x000040b5   Thumb Code   104  _printf_dec.o(.text)
    _printf_charcount                        0x0000412d   Thumb Code    40  _printf_charcount.o(.text)
    _printf_char_common                      0x0000415f   Thumb Code    32  _printf_char_common.o(.text)
    _sputc                                   0x00004185   Thumb Code    10  _sputc.o(.text)
    _snputc                                  0x0000418f   Thumb Code    16  _snputc.o(.text)
    _printf_wctomb                           0x000041a1   Thumb Code   182  _printf_wctomb.o(.text)
    _printf_longlong_dec                     0x0000425d   Thumb Code   108  _printf_longlong_dec.o(.text)
    _printf_longlong_oct                     0x000042d9   Thumb Code    68  _printf_oct_int_ll.o(.text)
    _printf_int_oct                          0x0000431d   Thumb Code    24  _printf_oct_int_ll.o(.text)
    _printf_ll_oct                           0x00004335   Thumb Code    12  _printf_oct_int_ll.o(.text)
    _printf_longlong_hex                     0x00004349   Thumb Code    86  _printf_hex_int_ll_ptr.o(.text)
    _printf_int_hex                          0x0000439f   Thumb Code    28  _printf_hex_int_ll_ptr.o(.text)
    _printf_ll_hex                           0x000043bb   Thumb Code    12  _printf_hex_int_ll_ptr.o(.text)
    _printf_hex_ptr                          0x000043c7   Thumb Code    18  _printf_hex_int_ll_ptr.o(.text)
    __printf                                 0x000043dd   Thumb Code   388  __printf_flags_ss_wp.o(.text)
    __user_libspace                          0x00004565   Thumb Code     8  libspace.o(.text)
    __user_perproc_libspace                  0x00004565   Thumb Code     0  libspace.o(.text)
    __user_perthread_libspace                0x00004565   Thumb Code     0  libspace.o(.text)
    __Heap_ProvideMemory                     0x0000456d   Thumb Code    52  h1_extend.o(.text)
    _ll_udiv10                               0x000045a1   Thumb Code   138  lludiv10.o(.text)
    _printf_int_common                       0x0000462b   Thumb Code   178  _printf_intcommon.o(.text)
    __lib_sel_fp_printf                      0x000046dd   Thumb Code     2  _printf_fp_dec.o(.text)
    _printf_fp_dec_real                      0x0000488b   Thumb Code   620  _printf_fp_dec.o(.text)
    _printf_fp_hex_real                      0x00004af9   Thumb Code   756  _printf_fp_hex.o(.text)
    _printf_cs_common                        0x00004df5   Thumb Code    20  _printf_char.o(.text)
    _printf_char                             0x00004e09   Thumb Code    16  _printf_char.o(.text)
    _printf_string                           0x00004e19   Thumb Code     8  _printf_char.o(.text)
    _printf_lcs_common                       0x00004e21   Thumb Code    20  _printf_wchar.o(.text)
    _printf_wchar                            0x00004e35   Thumb Code    16  _printf_wchar.o(.text)
    _printf_wstring                          0x00004e45   Thumb Code     8  _printf_wchar.o(.text)
    _wcrtomb                                 0x00004e4d   Thumb Code    64  _wcrtomb.o(.text)
    __rt_SIGRTMEM                            0x00004e8d   Thumb Code    14  defsig_rtmem_outer.o(.text)
    __I$use$semihosting                      0x00004e9b   Thumb Code     0  use_no_semi.o(.text)
    __use_no_semihosting_swi                 0x00004e9b   Thumb Code     2  use_no_semi.o(.text)
    __semihosting_library_function           0x00004e9d   Thumb Code     0  indicate_semi.o(.text)
    __user_setup_stackheap                   0x00004e9d   Thumb Code    74  sys_stackheap_outer.o(.text)
    __rt_ctype_table                         0x00004ee9   Thumb Code    16  rt_ctype_table.o(.text)
    __rt_locale                              0x00004ef9   Thumb Code     8  rt_locale_intlibspace.o(.text)
    _printf_fp_infnan                        0x00004f01   Thumb Code   112  _printf_fp_infnan.o(.text)
    _btod_etento                             0x00004f81   Thumb Code   216  bigflt0.o(.text)
    exit                                     0x0000505d   Thumb Code    18  exit.o(.text)
    __sig_exit                               0x0000506f   Thumb Code    10  defsig_exit.o(.text)
    __rt_SIGRTMEM_inner                      0x00005079   Thumb Code    22  defsig_rtmem_inner.o(.text)
    _sys_exit                                0x000050c9   Thumb Code     8  sys_exit.o(.text)
    __default_signal_display                 0x000050d5   Thumb Code    50  defsig_general.o(.text)
    strcmp                                   0x00005109   Thumb Code   128  strcmpv7m.o(.text)
    _ttywrch                                 0x00005189   Thumb Code    14  sys_wrch.o(.text)
    _btod_d2e                                0x00005197   Thumb Code    62  btod.o(CL$$btod_d2e)
    _d2e_denorm_low                          0x000051d5   Thumb Code    70  btod.o(CL$$btod_d2e_denorm_low)
    _d2e_norm_op1                            0x0000521b   Thumb Code    96  btod.o(CL$$btod_d2e_norm_op1)
    __btod_div_common                        0x0000527b   Thumb Code   696  btod.o(CL$$btod_div_common)
    _e2e                                     0x000055b3   Thumb Code   198  btod.o(CL$$btod_e2e)
    _btod_ediv                               0x00005679   Thumb Code    40  btod.o(CL$$btod_ediv)
    _btod_emul                               0x000056a1   Thumb Code    40  btod.o(CL$$btod_emul)
    __btod_mult_common                       0x000056c9   Thumb Code   580  btod.o(CL$$btod_mult_common)
    Long Thumb to Thumb Veneer to AUD_RegWrite 0x0000590d   Thumb Code    10  anon$$obj.o(Veneer$$Code)
    Long Thumb to Thumb Veneer to AUD_RegRead 0x00005917   Thumb Code    10  anon$$obj.o(Veneer$$Code)
    Long Thumb to Thumb Veneer to setting_pwm 0x00005921   Thumb Code    10  anon$$obj.o(Veneer$$Code)
    Long Thumb to Thumb Veneer to is_start_motor 0x0000592b   Thumb Code    10  anon$$obj.o(Veneer$$Code)
    Long Thumb to Thumb Veneer to get_motor_level 0x00005935   Thumb Code    10  anon$$obj.o(Veneer$$Code)
    Long Thumb to Thumb Veneer to SNX_AGC_Process 0x0000593f   Thumb Code    10  anon$$obj.o(Veneer$$Code)
    Long Thumb to Thumb Veneer to SNX_AGC_Process_init 0x00005949   Thumb Code    10  anon$$obj.o(Veneer$$Code)
    Long Thumb to Thumb Veneer to External_Audio_Codec_Init 0x00005953   Thumb Code    10  anon$$obj.o(Veneer$$Code)
    Long Thumb to Thumb Veneer to AUD01_ADC_Gain_Ctrl 0x0000595d   Thumb Code    10  anon$$obj.o(Veneer$$Code)
    Long Thumb to Thumb Veneer to Convert_to_Codec_Channel 0x00005967   Thumb Code    10  anon$$obj.o(Veneer$$Code)
    Long Thumb to Thumb Veneer to Convert_to_Codec_Sampling_Rate 0x00005971   Thumb Code    10  anon$$obj.o(Veneer$$Code)
    Long Thumb to Thumb Veneer to I2S4_Init  0x0000597b   Thumb Code    10  anon$$obj.o(Veneer$$Code)
    Long Thumb to Thumb Veneer to fun_main   0x00005985   Thumb Code    10  anon$$obj.o(Veneer$$Code)
    Long Thumb to Thumb Veneer to interrupt_service 0x0000598f   Thumb Code    10  anon$$obj.o(Veneer$$Code)
    Long Thumb to Thumb Veneer to UART_Init  0x00005999   Thumb Code    10  anon$$obj.o(Veneer$$Code)
    Long Thumb to Thumb Veneer to UART_WriteByte 0x000059a3   Thumb Code    10  anon$$obj.o(Veneer$$Code)
    BsrAbby                                  0x000059ad   Thumb Code    44  BsrJoe.o(i.BsrAbby)
    BsrAbel                                  0x000059d9   Thumb Code   130  BsrJoe.o(i.BsrAbel)
    BsrAdam                                  0x00005a5b   Thumb Code   228  BsrJoe.o(i.BsrAdam)
    BsrAlma                                  0x00005b3f   Thumb Code   252  BsrDon.o(i.BsrAlma)
    BsrAmir                                  0x00005c3b   Thumb Code    24  BsrDon.o(i.BsrAmir)
    BsrAmos                                  0x00005c53   Thumb Code   308  BsrDon.o(i.BsrAmos)
    BsrAna                                   0x00005d87   Thumb Code    40  BsrJim.o(i.BsrAna)
    BsrAnna                                  0x00005daf   Thumb Code    36  BsrDon.o(i.BsrAnna)
    BsrAnne                                  0x00005dd3   Thumb Code    22  BsrDon.o(i.BsrAnne)
    BsrAnnie                                 0x00005de9   Thumb Code    32  BsrDon.o(i.BsrAnnie)
    BsrAri                                   0x00005e09   Thumb Code   186  BsrJim.o(i.BsrAri)
    BsrAsa                                   0x00005ec9   Thumb Code   258  BsrJim.o(i.BsrAsa)
    BsrAvea                                  0x00005fd1   Thumb Code   182  BsrJim.o(i.BsrAvea)
    BsrAyla                                  0x00006087   Thumb Code    24  BsrDon.o(i.BsrAyla)
    BsrBaby                                  0x0000609f   Thumb Code    12  BsrDon.o(i.BsrBaby)
    BsrBrad                                  0x000061d5   Thumb Code    52  BsrBen.o(i.BsrBrad)
    BsrCade                                  0x00006339   Thumb Code   344  BsrJay.o(i.BsrCade)
    BsrCadea                                 0x00006491   Thumb Code   248  BsrJay.o(i.BsrCadea)
    BsrCale                                  0x0000658d   Thumb Code    82  BsrJay.o(i.BsrCale)
    BsrCara                                  0x000065e1   Thumb Code   968  BsrJay.o(i.BsrCara)
    BsrCarae                                 0x000069ad   Thumb Code   188  BsrJay.o(i.BsrCarae)
    BsrChad                                  0x00006a69   Thumb Code   204  BsrJay.o(i.BsrChad)
    BsrChada                                 0x00006b39   Thumb Code    72  BsrJay.o(i.BsrChada)
    BsrChaz                                  0x00006b85   Thumb Code   216  BsrJay.o(i.BsrChaz)
    BsrChaza                                 0x00006c61   Thumb Code   154  BsrJay.o(i.BsrChaza)
    BsrChaze                                 0x00006d01   Thumb Code   210  BsrJay.o(i.BsrChaze)
    BsrChazi                                 0x00006dd9   Thumb Code   196  BsrJay.o(i.BsrChazi)
    BsrClay                                  0x00006e9d   Thumb Code  1438  BsrJay.o(i.BsrClay)
    BsrCory                                  0x0000743d   Thumb Code   472  BsrJoy.o(i.BsrCory)
    BsrCoty                                  0x00007619   Thumb Code    32  BsrJoy.o(i.BsrCoty)
    BsrDan                                   0x00007639   Thumb Code    90  BsrJim.o(i.BsrDan)
    BsrDane                                  0x00007693   Thumb Code     8  BsrJoy.o(i.BsrDane)
    BsrDawn                                  0x0000769b   Thumb Code     8  BsrJoy.o(i.BsrDawn)
    BsrDeja                                  0x000076a5   Thumb Code   130  BsrJoy.o(i.BsrDeja)
    BsrDemi                                  0x00007729   Thumb Code   348  BsrJoy.o(i.BsrDemi)
    BsrDeon                                  0x00007889   Thumb Code   326  BsrJoy.o(i.BsrDeon)
    BsrDina                                  0x000079d1   Thumb Code   552  BsrJoy.o(i.BsrDina)
    BsrDion                                  0x00007bf9   Thumb Code   204  BsrJoy.o(i.BsrDion)
    BsrEden                                  0x00007cc9   Thumb Code   366  BsrEva.o(i.BsrEden)
    BsrEli                                   0x00007e3d   Thumb Code    92  BsrJim.o(i.BsrEli)
    BsrElla                                  0x00007e99   Thumb Code   454  BsrEva.o(i.BsrElla)
    BsrElsa                                  0x00008069   Thumb Code   408  BsrEva.o(i.BsrElsa)
    BsrEmma                                  0x00008209   Thumb Code   222  BsrEli.o(i.BsrEmma)
    BsrEric                                  0x000082e7   Thumb Code   140  BsrEli.o(i.BsrEric)
    BsrErica                                 0x00008375   Thumb Code   286  BsrEli.o(i.BsrErica)
    BsrErik                                  0x00008499   Thumb Code    60  BsrEli.o(i.BsrErik)
    BsrErin                                  0x000084d5   Thumb Code   252  BsrEli.o(i.BsrErin)
    BsrEva                                   0x000085d1   Thumb Code    34  BsrJim.o(i.BsrEva)
    BsrEvan                                  0x000085f3   Thumb Code    58  BsrEli.o(i.BsrEvan)
    BsrGary                                  0x0000862d   Thumb Code   174  BsrAna.o(i.BsrGary)
    BsrGreg                                  0x000086e1   Thumb Code   422  BsrAnn.o(i.BsrGreg)
    BsrGuy                                   0x0000888d   Thumb Code    60  BsrJim.o(i.BsrGuy)
    BsrHugo                                  0x000088c9   Thumb Code   204  BsrGuy.o(i.BsrHugo)
    BsrIris                                  0x00008999   Thumb Code    56  BsrGuy.o(i.BsrIris)
    BsrIrma                                  0x000089d1   Thumb Code    88  BsrGuy.o(i.BsrIrma)
    BsrIsai                                  0x00008a29   Thumb Code    54  BsrGuy.o(i.BsrIsai)
    BsrIvy                                   0x00008a5f   Thumb Code   180  BsrJim.o(i.BsrIvy)
    BsrJan                                   0x00008bed   Thumb Code    20  BsrJim.o(i.BsrJan)
    BsrJohn                                  0x00008eb5   Thumb Code    44  BsrAli.o(i.BsrJohn)
    BsrJose                                  0x00008ee1   Thumb Code    60  BsrAli.o(i.BsrJose)
    BsrJosh                                  0x00008f1d   Thumb Code   178  BsrAli.o(i.BsrJosh)
    BsrJoyci                                 0x00008fd1   Thumb Code   230  BsrJim.o(i.BsrJoyci)
    BsrLei                                   0x000090f7   Thumb Code    28  BsrJim.o(i.BsrLei)
    BsrMichael                               0x00009115   Thumb Code  1396  BsrJim.o(i.BsrMichael)
    BsrMichelle                              0x00009689   Thumb Code     8  BsrJim.o(i.BsrMichelle)
    BsrMike                                  0x00009691   Thumb Code   206  BsrJim.o(i.BsrMike)
    BsrMya                                   0x0000975f   Thumb Code   156  BsrKai.o(i.BsrMya)
    BsrNia                                   0x000097fb   Thumb Code    56  BsrKai.o(i.BsrNia)
    BsrRay                                   0x00009833   Thumb Code   284  BsrKai.o(i.BsrRay)
    BsrRex                                   0x0000994f   Thumb Code    16  BsrKai.o(i.BsrRex)
    BsrRey                                   0x0000995f   Thumb Code    14  BsrKai.o(i.BsrRey)
    BsrRon                                   0x0000996d   Thumb Code  1236  BsrKai.o(i.BsrRon)
    BsrRoy                                   0x00009e41   Thumb Code    44  BsrKai.o(i.BsrRoy)
    BsrTed                                   0x00009e6d   Thumb Code    14  BsrKai.o(i.BsrTed)
    BsrTia                                   0x00009e7b   Thumb Code   114  BsrKai.o(i.BsrTia)
    BsrTom                                   0x00009eed   Thumb Code   158  BsrKai.o(i.BsrTom)
    BsrTop                                   0x00009f8b   Thumb Code    98  BsrKai.o(i.BsrTop)
    BsrTre                                   0x00009fed   Thumb Code    20  BsrKai.o(i.BsrTre)
    BsrZoe                                   0x0000a001   Thumb Code     4  BsrJoe.o(i.BsrZoe)
    CSpotter_AddSample                       0x0000a005   Thumb Code    80  CSpotterSDKApi.o(i.CSpotter_AddSample)
    CSpotter_GetMemoryUsage_Multi            0x0000a05d   Thumb Code    24  CSpotterSDKApi.o(i.CSpotter_GetMemoryUsage_Multi)
    CSpotter_GetMemoryUsage_MultiWithSpeakerAndExtRejModel 0x0000a075   Thumb Code   208  CSpotterSDKApi.o(i.CSpotter_GetMemoryUsage_MultiWithSpeakerAndExtRejModel)
    CSpotter_GetNumWord                      0x0000a14d   Thumb Code    38  CSpotterSDKApi.o(i.CSpotter_GetNumWord)
    CSpotter_GetResult                       0x0000a185   Thumb Code    32  CSpotterSDKApi.o(i.CSpotter_GetResult)
    CSpotter_Init_Multi                      0x0000a1a5   Thumb Code    40  CSpotterSDKApi.o(i.CSpotter_Init_Multi)
    CSpotter_Init_MultiWithExtRejModel       0x0000a1cd   Thumb Code   488  CSpotterSDKApi.o(i.CSpotter_Init_MultiWithExtRejModel)
    CSpotter_Reset                           0x0000a3cd   Thumb Code    42  CSpotterSDKApi.o(i.CSpotter_Reset)
    CSpotter_SetRejectionLevel               0x0000a3fd   Thumb Code    38  CSpotterSDKApi.o(i.CSpotter_SetRejectionLevel)
    NINJA_API_1                              0x0000a429   Thumb Code   118  BsrGo.o(i.NINJA_API_1)
    NINJA_API_11                             0x0000a4a1   Thumb Code   628  BsrGo.o(i.NINJA_API_11)
    NINJA_API_13                             0x0000a715   Thumb Code   356  BsrGo.o(i.NINJA_API_13)
    NINJA_API_15                             0x0000a879   Thumb Code    32  BsrGo.o(i.NINJA_API_15)
    NINJA_API_19                             0x0000a899   Thumb Code    32  BsrGo.o(i.NINJA_API_19)
    NINJA_API_2                              0x0000a8b9   Thumb Code    40  BsrGo.o(i.NINJA_API_2)
    NINJA_API_23                             0x0000a8e1   Thumb Code    36  BsrGo.o(i.NINJA_API_23)
    NINJA_API_26                             0x0000a905   Thumb Code    48  BsrGo.o(i.NINJA_API_26)
    NINJA_API_3                              0x0000a935   Thumb Code    34  BsrGo.o(i.NINJA_API_3)
    NINJA_API_31                             0x0000a957   Thumb Code    10  BsrGo.o(i.NINJA_API_31)
    NINJA_API_47                             0x0000a961   Thumb Code   108  BsrGo.o(i.NINJA_API_47)
    NINJA_API_48                             0x0000a9cd   Thumb Code   128  BsrGo.o(i.NINJA_API_48)
    NINJA_API_55                             0x0000aa4d   Thumb Code    54  BsrGo.o(i.NINJA_API_55)
    NINJA_API_56                             0x0000aa83   Thumb Code    38  BsrGo.o(i.NINJA_API_56)
    NINJA_API_73                             0x0000aaa9   Thumb Code   950  BsrGo.o(i.NINJA_API_73)
    NINJA_API_75                             0x0000ae69   Thumb Code   190  BsrGo.o(i.NINJA_API_75)
    __ARM_fpclassify                         0x0000af2d   Thumb Code    40  fpclassify.o(i.__ARM_fpclassify)
    _is_digit                                0x0000af55   Thumb Code    14  __printf_wp.o(i._is_digit)
    _get_lc_numeric                          0x0000af65   Thumb Code    44  lc_numeric_c.o(locale$$code)
    _get_lc_ctype                            0x0000af91   Thumb Code    44  lc_ctype_c.o(locale$$code)
    __fpl_dcmp_Inf                           0x0000afbd   Thumb Code    24  dcmpi.o(x$fpl$dcmpinf)
    __aeabi_ddiv                             0x0000afd5   Thumb Code     0  ddiv.o(x$fpl$ddiv)
    _ddiv                                    0x0000afd5   Thumb Code   552  ddiv.o(x$fpl$ddiv)
    __aeabi_d2iz                             0x0000b285   Thumb Code     0  dfix.o(x$fpl$dfix)
    _dfix                                    0x0000b285   Thumb Code    94  dfix.o(x$fpl$dfix)
    __aeabi_i2d                              0x0000b2e3   Thumb Code     0  dflt_clz.o(x$fpl$dflt)
    _dflt                                    0x0000b2e3   Thumb Code    46  dflt_clz.o(x$fpl$dflt)
    __aeabi_cdcmple                          0x0000b311   Thumb Code     0  dleqf.o(x$fpl$dleqf)
    _dcmple                                  0x0000b311   Thumb Code   120  dleqf.o(x$fpl$dleqf)
    __fpl_dcmple_InfNaN                      0x0000b373   Thumb Code     0  dleqf.o(x$fpl$dleqf)
    __aeabi_dmul                             0x0000b389   Thumb Code     0  dmul.o(x$fpl$dmul)
    _dmul                                    0x0000b389   Thumb Code   332  dmul.o(x$fpl$dmul)
    __fpl_dnaninf                            0x0000b4dd   Thumb Code   156  dnaninf.o(x$fpl$dnaninf)
    __fpl_dretinf                            0x0000b579   Thumb Code    12  dretinf.o(x$fpl$dretinf)
    __aeabi_f2d                              0x0000b585   Thumb Code     0  f2d.o(x$fpl$f2d)
    _f2d                                     0x0000b585   Thumb Code    86  f2d.o(x$fpl$f2d)
    __aeabi_i2f                              0x0000b5dd   Thumb Code     0  fflt_clz.o(x$fpl$fflt)
    _fflt                                    0x0000b5dd   Thumb Code    48  fflt_clz.o(x$fpl$fflt)
    __fpl_fnaninf                            0x0000b60d   Thumb Code   140  fnaninf.o(x$fpl$fnaninf)
    _printf_fp_dec                           0x0000b699   Thumb Code     4  printf1.o(x$fpl$printf1)
    _printf_fp_hex                           0x0000b69d   Thumb Code     4  printf2.o(x$fpl$printf2)
    __I$use$fp                               0x0000b6a0   Number         0  usenofp.o(x$fpl$usenofp)
    Region$$Table$$Base                      0x0000d2bc   Number         0  anon$$obj.o(Region$$Table)
    Region$$Table$$Limit                     0x0000d2ec   Number         0  anon$$obj.o(Region$$Table)
    __ctype                                  0x0000d315   Data           0  lc_ctype_c.o(locale$$data)
    dsp_alg_status                           0x18000000   Data           1  main.o(.data)
    AD_Gain_Tab                              0x18000002   Data         128  main.o(.data)
    cmd_idx                                  0x18000084   Data           4  main.o(.data)
    stop_flag                                0x18000088   Data           4  main.o(.data)
    trigger_flag                             0x1800008c   Data           4  main.o(.data)
    trigger_timer_count                      0x18000090   Data           4  main.o(.data)
    cmd_timer_count                          0x18000094   Data           4  main.o(.data)
    ALG_FLAG                                 0x18000098   Data           4  main.o(.data)
    recognition_result                       0x1800009c   Data           4  main.o(.data)
    pnWordIdx                                0x180000a0   Data           8  main.o(.data)
    nErr                                     0x180000a8   Data           4  main.o(.data)
    nStateSize                               0x180000ac   Data           4  main.o(.data)
    tmp                                      0x180000b0   Data           4  main.o(.data)
    hCSpotter                                0x180000b4   Data           4  main.o(.data)
    nNumSample                               0x180000b8   Data           4  main.o(.data)
    audio_buf_L                              0x180000bc   Data           4  main.o(.data)
    audio_buf_R                              0x180000c0   Data           4  main.o(.data)
    AGC_GAIN_temp                            0x180000c4   Data           4  main.o(.data)
    last_gainidx                             0x180000c8   Data           2  main.o(.data)
    ALG_Status                               0x180000ca   Data           2  main.o(.data)
    ALGSequegInputBuf                        0x180000cc   Data           4  main.o(.data)
    ALGSequegInputBuf1                       0x180000d0   Data           4  main.o(.data)
    ADC_IDX                                  0x180000d4   Data           4  main.o(.data)
    DAC_IDX                                  0x180000d8   Data           4  main.o(.data)
    fpA32Current                             0x180000dc   Data           4  main.o(.data)
    fpA32End                                 0x180000e0   Data           4  main.o(.data)
    bDAC_Switch                              0x180000e4   Data           1  main.o(.data)
    anw                                      0x180000e8   Data           4  main.o(.data)
    g_pld_control                            0x180000ec   Data           4  main.o(.data)
    g_speechenhance_control                  0x180000f0   Data           4  main.o(.data)
    ptrQ                                     0x180000f4   Data           4  main.o(.data)
    eADC_PPB                                 0x180000f8   Data           1  main.o(.data)
    eDAC_PPB                                 0x180000f9   Data           1  main.o(.data)
    eDAC_BR                                  0x180000fc   Data           4  main.o(.data)
    psA32dec                                 0x18000100   Data           4  main.o(.data)
    AGC_ptr                                  0x18000104   Data           4  main.o(.data)
    temp_var                                 0x18000108   Data           4  main.o(.data)
    Language_index                           0x1800010c   Data           1  main.o(.data)
    isneedsetlanguage                        0x1800010d   Data           1  main.o(.data)
    pwmvalue                                 0x1800010e   Data           1  main.o(.data)
    LED_status                               0x18000110   Data           4  main.o(.data)
    led_vr_time                              0x18000114   Data           4  main.o(.data)
    is_5ms_Flag                              0x18000118   Data           1  main.o(.data)
    cnt_5ms                                  0x18000119   Data           1  main.o(.data)
    realgainL                                0x1800011a   Data           2  main.o(.data)
    realgainR                                0x1800011c   Data           2  main.o(.data)
    g_AGC_bufsize                            0x18000120   Data           4  snx_audio_agc.o(.data)
    g_AGC_gain                               0x18000124   Data           4  snx_audio_agc.o(.data)
    g_AGC_peakamp_thres                      0x18000128   Data           4  snx_audio_agc.o(.data)
    g_AGC_peakcnt_thres                      0x1800012c   Data           4  snx_audio_agc.o(.data)
    g_AGC_peakcnt_thres2                     0x18000130   Data           4  snx_audio_agc.o(.data)
    g_AGC_noise_floor                        0x18000134   Data           4  snx_audio_agc.o(.data)
    g_AGC_saturation_alarm                   0x18000138   Data           4  snx_audio_agc.o(.data)
    g_AGC_silence_cnt                        0x1800013c   Data           4  snx_audio_agc.o(.data)
    g_AGC_current_amp                        0x18000140   Data           4  snx_audio_agc.o(.data)
    g_AGC_max_gain                           0x18000144   Data           4  snx_audio_agc.o(.data)
    g_AGC_default_gain                       0x18000148   Data           4  snx_audio_agc.o(.data)
    g_AGC_frame_trigger                      0x1800014c   Data           4  snx_audio_agc.o(.data)
    g_AGC_dynamic_default_gain               0x18000150   Data           4  snx_audio_agc.o(.data)
    g_AGC_dynamic_up_control_frmcnt          0x18000154   Data           4  snx_audio_agc.o(.data)
    g_AGC_dynamic_down_control_frmcnt        0x18000158   Data           4  snx_audio_agc.o(.data)
    g_AGC_dynamic_max_gain                   0x1800015c   Data           4  snx_audio_agc.o(.data)
    g_AGC_dynamic_min_gain                   0x18000160   Data           4  snx_audio_agc.o(.data)
    g_AGC_dynamic_targetLv_lowbound          0x18000164   Data           4  snx_audio_agc.o(.data)
    g_AGC_dynamic_targetLv_highbound         0x18000168   Data           4  snx_audio_agc.o(.data)
    g_AGC_dynamic_targetLv_speed             0x1800016c   Data           4  snx_audio_agc.o(.data)
    g_AGC_min_gain                           0x18000170   Data           4  snx_audio_agc.o(.data)
    g_AGC_response_up_frmcnt                 0x18000174   Data           4  snx_audio_agc.o(.data)
    g_AGC_response_up_speed                  0x18000178   Data           4  snx_audio_agc.o(.data)
    g_AGC_response_down_frmcnt               0x1800017c   Data           4  snx_audio_agc.o(.data)
    g_AGC_response_down_speed                0x18000180   Data           4  snx_audio_agc.o(.data)
    update_frmcnt                            0x18000184   Data           4  snx_audio_agc.o(.data)
    tracking_frmcnt                          0x18000188   Data           4  snx_audio_agc.o(.data)
    EngMin                                   0x1800018c   Data           4  snx_audio_agc.o(.data)
    EngMinTmp                                0x18000190   Data           4  snx_audio_agc.o(.data)
    noise_update_lv1                         0x18000194   Data           4  snx_audio_agc.o(.data)
    noise_update_lv2                         0x18000198   Data           4  snx_audio_agc.o(.data)
    tracking_update_init                     0x1800019c   Data           4  snx_audio_agc.o(.data)
    noise_tracking_update_lv1                0x180001a0   Data           4  snx_audio_agc.o(.data)
    noise_tracking_update_lv2                0x180001a4   Data           4  snx_audio_agc.o(.data)
    g_silencecnt_thres                       0x180001a8   Data           4  snx_audio_agc.o(.data)
    g_silence_tag                            0x180001ac   Data           4  snx_audio_agc.o(.data)
    peakcnt                                  0x180001b0   Data           4  snx_audio_agc.o(.data)
    peakcnt2                                 0x180001b4   Data           4  snx_audio_agc.o(.data)
    g_temp                                   0x180001b8   Data           4  snx_audio_agc.o(.data)
    g_AGC_TV_flag                            0x180001bc   Data           4  snx_audio_agc.o(.data)
    g_silence_flag                           0x180001c0   Data           4  snx_audio_agc.o(.data)
    curKey                                   0x180001d4   Data           1  key.o(.data)
    preKey                                   0x180001d5   Data           1  key.o(.data)
    debounce                                 0x180001d8   Data           4  key.o(.data)
    Safety_key_debounce                      0x180001dc   Data           1  key.o(.data)
    Charging_key_debounce                    0x180001dd   Data           1  key.o(.data)
    iswaitrelease                            0x180001de   Data           1  key.o(.data)
    issafety                                 0x180001df   Data           1  key.o(.data)
    led_stage                                0x180001e0   Data           1  led.o(.data)
    led_white_mode                           0x180001e1   Data           1  led.o(.data)
    led_rgb_mode                             0x180001e2   Data           1  led.o(.data)
    led_white_tog                            0x180001e3   Data           1  led.o(.data)
    led_display_time                         0x180001e4   Data           4  led.o(.data)
    Motor_Level                              0x180001e8   Data           1  motor.o(.data)
    isStartMotor                             0x180001e9   Data           1  motor.o(.data)
    isMaxPWM                                 0x180001ea   Data           1  motor.o(.data)
    cur_Motor_PWM                            0x180001ec   Data           4  motor.o(.data)
    Motor_Wakeup_cnt                         0x180001f0   Data           1  motor.o(.data)
    Motor_done_cnt                           0x180001f1   Data           1  motor.o(.data)
    dpdtime                                  0x180001f4   Data           4  fun_main.o(.data)
    adccnt                                   0x180001f8   Data           1  fun_main.o(.data)
    batlevel                                 0x180001f9   Data           1  fun_main.o(.data)
    adcvalue                                 0x180001fc   Data           4  fun_main.o(.data)
    system_stage                             0x18000200   Data           1  fun_main.o(.data)
    isneedinitstage                          0x18000201   Data           1  fun_main.o(.data)
    isneedinitbatled                         0x18000202   Data           1  fun_main.o(.data)
    isneedinitsys                            0x18000203   Data           1  fun_main.o(.data)
    ischarging                               0x18000204   Data           1  fun_main.o(.data)
    isstartsystem                            0x18000205   Data           1  fun_main.o(.data)
    startADC_cnt                             0x18000206   Data           1  fun_main.o(.data)
    batlevel_led_value                       0x18000207   Data           1  fun_main.o(.data)
    led_type                                 0x18000208   Data           1  fun_main.o(.data)
    adc_pre_cnt                              0x18000209   Data           1  fun_main.o(.data)
    gLog_flags                               0x18000254   Data           4  log_util.o(.data)
    ITM_RxBuffer                             0x1800025c   Data           4  log_util.o(.data)
    lppbyModel                               0x18000264   Data          12  main.o(.bss)
    lpbyState                                0x18000270   Data          96  main.o(.bss)
    AEC_OutBuf                               0x180002d0   Data         512  main.o(.bss)
    memory_pool                              0x180004d0   Data       10240  main.o(.bss)
    model_buf                                0x18002cd0   Data       61440  main.o(.bss)
    ADC_Buffer                               0x18011cd0   Data        2048  main.o(.bss)
    MIC_Buffer                               0x180124d0   Data        2048  main.o(.bss)
    DAC_Buffer                               0x18012cd0   Data        1280  main.o(.bss)
    AGC_ptr_Mic                              0x180131d0   Data         164  main.o(.bss)
    AGC_ptr_Ref                              0x18013274   Data         164  main.o(.bss)
    init_info                                0x18013318   Data          32  motor.o(.bss)
    adc                                      0x18013338   Data          32  fun_main.o(.bss)
    sar_adc                                  0x18013358   Data          12  fun_main.o(.bss)
    rx_buffer                                0x18013388   Data          24  uart.o(.bss)
    rx_buffer1                               0x180133a0   Data          24  uart.o(.bss)
    __libspace_start                         0x1801344c   Data          96  libspace.o(.bss)
    __temporary_stack_top$libspace           0x180134ac   Data           0  libspace.o(.bss)
    dynamic_default_gain                     0x1801ec01   Thumb Code   262  snx_audio_agc.o(.text)
    saturation_protect                       0x1801ed07   Thumb Code   340  snx_audio_agc.o(.text)
    update_NoiseFloor                        0x1801ee5b   Thumb Code   194  snx_audio_agc.o(.text)
    SNX_AGC_Process                          0x1801ef1d   Thumb Code   668  snx_audio_agc.o(.text)
    SNX_AGC_Process_init                     0x1801f1b9   Thumb Code   896  snx_audio_agc.o(.text)
    KeyInit                                  0x1801f539   Thumb Code    66  key.o(.text)
    KeyScan                                  0x1801f57b   Thumb Code   260  key.o(.text)
    Init_LED                                 0x1801f6a1   Thumb Code   182  led.o(.text)
    DeInit_LED                               0x1801f757   Thumb Code     2  led.o(.text)
    LED_WHITE_Set_value                      0x1801f759   Thumb Code    68  led.o(.text)
    LED_WHITE_Setting                        0x1801f79d   Thumb Code    24  led.o(.text)
    LED_RGB_Set_value                        0x1801f7b5   Thumb Code    52  led.o(.text)
    LED_RGB_Setting                          0x1801f7e9   Thumb Code    26  led.o(.text)
    batlevel_to_led_value                    0x1801f803   Thumb Code   230  led.o(.text)
    LED_Setting                              0x1801f8e9   Thumb Code   180  led.o(.text)
    LED_Process                              0x1801f99d   Thumb Code   318  led.o(.text)
    GPIO3_IRQHandler                         0x1801faf5   Thumb Code    24  motor.o(.text)
    InitPWM                                  0x1801fb0d   Thumb Code    56  motor.o(.text)
    TurnOffMotor                             0x1801fb45   Thumb Code    92  motor.o(.text)
    Change_Motor_PWM                         0x1801fba1   Thumb Code   238  motor.o(.text)
    get_motor_level                          0x1801fc8f   Thumb Code     6  motor.o(.text)
    is_start_motor                           0x1801fc95   Thumb Code     6  motor.o(.text)
    cur_pwm                                  0x1801fc9b   Thumb Code    36  motor.o(.text)
    check_motor_done                         0x1801fcbf   Thumb Code   172  motor.o(.text)
    interrupt_service                        0x1801fd8d   Thumb Code    48  fun_main.o(.text)
    getadcvalue                              0x1801fdbd   Thumb Code    26  fun_main.o(.text)
    getbatlevel                              0x1801fdd7   Thumb Code   348  fun_main.o(.text)
    SysInit                                  0x1801ff33   Thumb Code   130  fun_main.o(.text)
    setting_pwm                              0x1801ffb5   Thumb Code    58  fun_main.o(.text)
    fun_main                                 0x1801ffef   Thumb Code   808  fun_main.o(.text)
    Convert_to_Codec_Channel                 0x18020339   Thumb Code    24  audio.o(.text)
    Convert_to_Codec_Sampling_Rate           0x18020351   Thumb Code   116  audio.o(.text)
    Convert_to_Aud_Sampling_Rate             0x180203c5   Thumb Code   116  audio.o(.text)
    External_Audio_Codec_Init                0x18020439   Thumb Code    60  audio.o(.text)
    I2C_ch_sel                               0x18020479   Thumb Code     6  i2c_software_master.o(.text)
    SCL_rd                                   0x1802047f   Thumb Code    48  i2c_software_master.o(.text)
    SDA_rd                                   0x180204af   Thumb Code    48  i2c_software_master.o(.text)
    I2C_SoftWare_Master_Init                 0x180204df   Thumb Code   362  i2c_software_master.o(.text)
    ACK_read_init                            0x18020649   Thumb Code    38  i2c_software_master.o(.text)
    ACK_read_deinit                          0x1802066f   Thumb Code    38  i2c_software_master.o(.text)
    SCL_read                                 0x18020695   Thumb Code     8  i2c_software_master.o(.text)
    SDA_read                                 0x1802069d   Thumb Code     8  i2c_software_master.o(.text)
    I2C_delay                                0x180206a5   Thumb Code    24  i2c_software_master.o(.text)
    I2C_delay_C                              0x180206bd   Thumb Code    24  i2c_software_master.o(.text)
    I2C_delay_2                              0x180206d5   Thumb Code    24  i2c_software_master.o(.text)
    I2C_delay_3                              0x180206ed   Thumb Code    24  i2c_software_master.o(.text)
    I2C_Start                                0x18020705   Thumb Code   182  i2c_software_master.o(.text)
    I2C_Stop                                 0x180207bb   Thumb Code   186  i2c_software_master.o(.text)
    I2C_Ack                                  0x18020875   Thumb Code   164  i2c_software_master.o(.text)
    I2C_NoAck                                0x18020919   Thumb Code   164  i2c_software_master.o(.text)
    I2C_WaitAck                              0x180209bd   Thumb Code   180  i2c_software_master.o(.text)
    I2C_SendByte                             0x18020a71   Thumb Code   228  i2c_software_master.o(.text)
    I2C_SendByte2                            0x18020b55   Thumb Code   228  i2c_software_master.o(.text)
    I2C_ReceiveByte                          0x18020c39   Thumb Code   180  i2c_software_master.o(.text)
    I2C_SoftWare_Master_ReInit               0x18020ced   Thumb Code    12  i2c_software_master.o(.text)
    I2C_SoftWare_Master_Write                0x18020cf9   Thumb Code    84  i2c_software_master.o(.text)
    I2C_Start_Master_read                    0x18020d4d   Thumb Code   124  i2c_software_master.o(.text)
    I2C_SoftWare_Master_Read                 0x18020dc9   Thumb Code    74  i2c_software_master.o(.text)
    Delay                                    0x18020e25   Thumb Code    26  aud_driver.o(.text)
    AUD_RegWrite                             0x18020e4b   Thumb Code   194  aud_driver.o(.text)
    AUD_RegRead                              0x18020f0d   Thumb Code   244  aud_driver.o(.text)
    AUD_mclk_enable                          0x18021001   Thumb Code    30  aud_driver.o(.text)
    AUD_mclk_disable                         0x1802101f   Thumb Code    32  aud_driver.o(.text)
    AUD_Driver_Init                          0x1802103f   Thumb Code   138  aud_driver.o(.text)
    AUD_SlaveMode_Init                       0x180210c9   Thumb Code  1392  aud_driver.o(.text)
    AUD_MasterMode_Init                      0x18021639   Thumb Code  2124  aud_driver.o(.text)
    AUD_DAC_Volume                           0x18021e85   Thumb Code   136  aud_driver.o(.text)
    AUD_ADC_Gain_Setting                     0x18021f0d   Thumb Code   228  aud_driver.o(.text)
    AUD_Get_DAC_Volume                       0x18021ff1   Thumb Code    14  aud_driver.o(.text)
    SNAUD01_MasterMode_Init                  0x1802398f   Thumb Code    86  aud_driver.o(.text)
    SNAUD01_power_down                       0x180239e5   Thumb Code    48  aud_driver.o(.text)
    SNAUD01_sleep                            0x18023a15   Thumb Code    48  aud_driver.o(.text)
    SNAUD01_list_all_reg                     0x18023a45   Thumb Code  1050  aud_driver.o(.text)
    SNAUD01_debug_mode                       0x18023e5f   Thumb Code   480  aud_driver.o(.text)
    AUD_Set_Driver_Mode                      0x1802403f   Thumb Code     6  aud_driver.o(.text)
    AUD01_ADC_Turn_On                        0x18024045   Thumb Code    38  aud_driver.o(.text)
    AUD01_ADC_Turn_Off                       0x1802406b   Thumb Code    12  aud_driver.o(.text)
    AUD01_ADC_Gain_Ctrl                      0x18024077   Thumb Code   308  aud_driver.o(.text)
    AUD01_DAC_Turn_On                        0x180241ab   Thumb Code    52  aud_driver.o(.text)
    AUD01_DAC_Turn_Off                       0x180241df   Thumb Code    42  aud_driver.o(.text)
    AUD01_DAC_Volume_Control                 0x18024209   Thumb Code    72  aud_driver.o(.text)
    AUD01_AMP_Turn_On                        0x18024251   Thumb Code   112  aud_driver.o(.text)
    AUD01_AMP_Turn_Off                       0x180242c1   Thumb Code    66  aud_driver.o(.text)
    AUD01_dpd                                0x18024303   Thumb Code    14  aud_driver.o(.text)
    I2S4_Clr_Rx_FIFO                         0x18024319   Thumb Code    18  i2s4.o(.text)
    I2S4_Clr_Tx_FIFO                         0x1802432b   Thumb Code    18  i2s4.o(.text)
    I2S4_Enable                              0x1802433d   Thumb Code   204  i2s4.o(.text)
    I2S4_Disable                             0x18024409   Thumb Code    14  i2s4.o(.text)
    I2S4_Set_Ch_Len                          0x18024417   Thumb Code    14  i2s4.o(.text)
    I2S4_Set_Data_Len                        0x18024425   Thumb Code    14  i2s4.o(.text)
    I2S4_Set_Format                          0x18024433   Thumb Code    14  i2s4.o(.text)
    I2S4_Set_MONO_STEREO                     0x18024441   Thumb Code    14  i2s4.o(.text)
    I2S4_Start                               0x1802444f   Thumb Code    16  i2s4.o(.text)
    I2S4_Mute                                0x1802445f   Thumb Code    16  i2s4.o(.text)
    I2S4_UnMute                              0x1802446f   Thumb Code    14  i2s4.o(.text)
    I2S4_Stop                                0x1802447d   Thumb Code    14  i2s4.o(.text)
    I2S4_SEL_IMCLK                           0x1802448b   Thumb Code   116  i2s4.o(.text)
    I2S4_SET_BCLKDIV                         0x180244ff   Thumb Code    14  i2s4.o(.text)
    I2S4_SET_IMCLKDIV                        0x1802450d   Thumb Code    14  i2s4.o(.text)
    I2S4_Clr_Int_Flag                        0x1802451b   Thumb Code    12  i2s4.o(.text)
    I2S4_Set_Rx_THD                          0x18024527   Thumb Code    18  i2s4.o(.text)
    I2S4_Set_Tx_THD                          0x18024539   Thumb Code    18  i2s4.o(.text)
    I2S4_Set_INT_Enable                      0x1802454b   Thumb Code   246  i2s4.o(.text)
    I2S4_Set_INT_Disable                     0x18024641   Thumb Code    76  i2s4.o(.text)
    I2S4_Read_Rx_FIFO                        0x1802468d   Thumb Code     6  i2s4.o(.text)
    I2S4_Write_Tx_FIFO                       0x18024693   Thumb Code     6  i2s4.o(.text)
    I2S4_Read_IP_Status                      0x18024699   Thumb Code     6  i2s4.o(.text)
    I2S4_Read_Int_Status                     0x1802469f   Thumb Code     6  i2s4.o(.text)
    I2S4_Read_Tx_FIFO_Status                 0x180246a5   Thumb Code    10  i2s4.o(.text)
    I2S4_Read_Rx_FIFO_Status                 0x180246af   Thumb Code    10  i2s4.o(.text)
    I2S4_MCLK_OUT0_SEL                       0x180246b9   Thumb Code    14  i2s4.o(.text)
    I2S4_MCLK_OUT1_SEL                       0x180246c7   Thumb Code    14  i2s4.o(.text)
    I2S4_MCLK_OUT_ENABLE                     0x180246d5   Thumb Code    14  i2s4.o(.text)
    I2S4_MCLK_OUT0_OUT1_SEL                  0x180246e3   Thumb Code    76  i2s4.o(.text)
    I2S4_Init                                0x1802472f   Thumb Code    18  i2s4.o(.text)
    I2S4_8Bit_STD_Handler                    0x18024741   Thumb Code   184  i2s4.o(.text)
    I2S4_16Bit_STD_Handler                   0x180247f9   Thumb Code   120  i2s4.o(.text)
    I2S4_32Bit_STD_Handler                   0x18024871   Thumb Code   120  i2s4.o(.text)
    I2S4_MONO_Handler                        0x180248e9   Thumb Code    82  i2s4.o(.text)
    UART_Init                                0x18024a81   Thumb Code   764  uart.o(.text)
    uart_deinit                              0x18024d7d   Thumb Code     6  uart.o(.text)
    UART_ReadByte                            0x18024d83   Thumb Code    68  uart.o(.text)
    UART_WriteByte                           0x18024dc7   Thumb Code    66  uart.o(.text)
    UART_WriteMultiBytes                     0x18024e09   Thumb Code    84  uart.o(.text)
    UART_ReadIrqByte                         0x18024e5d   Thumb Code    30  uart.o(.text)
    UART0_IRQHandler                         0x18024e7b   Thumb Code    12  uart.o(.text)
    UART1_IRQHandler                         0x18024e87   Thumb Code    12  uart.o(.text)
    UART_GetVersion                          0x18024e93   Thumb Code     4  uart.o(.text)
    UART_READ                                0x18024e97   Thumb Code    46  uart.o(.text)
    UART_AVAILABLE                           0x18024ec5   Thumb Code    26  uart.o(.text)
    UART_PEEK                                0x18024edf   Thumb Code    34  uart.o(.text)
    UART_END                                 0x18024f01   Thumb Code    22  uart.o(.text)
    UART_WRITEBYTE                           0x18024f17   Thumb Code    66  uart.o(.text)
    Long Thumb to Thumb Veneer to __aeabi_i2d 0x18024f75   Thumb Code    10  anon$$obj.o(Veneer$$Code)
    Long Thumb to Thumb Veneer to __aeabi_dmul 0x18024f7f   Thumb Code    10  anon$$obj.o(Veneer$$Code)
    Long Thumb to Thumb Veneer to __aeabi_cdcmple 0x18024f89   Thumb Code    10  anon$$obj.o(Veneer$$Code)
    Long Thumb to Thumb Veneer to __aeabi_i2f 0x18024f93   Thumb Code    10  anon$$obj.o(Veneer$$Code)
    Long Thumb to Thumb Veneer to __aeabi_f2d 0x18024f9d   Thumb Code    10  anon$$obj.o(Veneer$$Code)
    Long Thumb to Thumb Veneer to __aeabi_d2iz 0x18024fa7   Thumb Code    10  anon$$obj.o(Veneer$$Code)
    Long Thumb to Thumb Veneer to __aeabi_ddiv 0x18024fb1   Thumb Code    10  anon$$obj.o(Veneer$$Code)
    Long Thumb to Thumb Veneer to GPIO_SetPin 0x18024fbb   Thumb Code    10  anon$$obj.o(Veneer$$Code)
    Long Thumb to Thumb Veneer to GPIO_GetPin 0x18024fc5   Thumb Code    10  anon$$obj.o(Veneer$$Code)
    Long Thumb to Thumb Veneer to GPIO_Irq_GetPinIrq 0x18024fcf   Thumb Code    10  anon$$obj.o(Veneer$$Code)
    Long Thumb to Thumb Veneer to GPIO_Irq_ClearPinIrq 0x18024fd9   Thumb Code    10  anon$$obj.o(Veneer$$Code)
    Long Thumb to Thumb Veneer to GPIO_Irq_Deinit 0x18024fe3   Thumb Code    10  anon$$obj.o(Veneer$$Code)
    Long Thumb to Thumb Veneer to TimerPwm_Reset 0x18024fed   Thumb Code    10  anon$$obj.o(Veneer$$Code)
    Long Thumb to Thumb Veneer to Timer_Launch 0x18024ff7   Thumb Code    10  anon$$obj.o(Veneer$$Code)
    Long Thumb to Thumb Veneer to GPIO_Irq_Init 0x18025001   Thumb Code    10  anon$$obj.o(Veneer$$Code)
    Long Thumb to Thumb Veneer to GPIO_Irq_SetPin 0x1802500b   Thumb Code    10  anon$$obj.o(Veneer$$Code)
    Long Thumb to Thumb Veneer to SAR_ADC_init 0x18025015   Thumb Code    10  anon$$obj.o(Veneer$$Code)
    Long Thumb to Thumb Veneer to SAR_ADC_Enable 0x1802501f   Thumb Code    10  anon$$obj.o(Veneer$$Code)
    Long Thumb to Thumb Veneer to SAR_ADC_Start 0x18025029   Thumb Code    10  anon$$obj.o(Veneer$$Code)
    Long Thumb to Thumb Veneer to I2C_Master_Send 0x18025033   Thumb Code    10  anon$$obj.o(Veneer$$Code)
    Long Thumb to Thumb Veneer to I2C_Set_Stop_Condition 0x1802503d   Thumb Code    10  anon$$obj.o(Veneer$$Code)
    Long Thumb to Thumb Veneer to I2C_Master_Recv 0x18025047   Thumb Code    10  anon$$obj.o(Veneer$$Code)
    Long Thumb to Thumb Veneer to I2C_Initial 0x18025051   Thumb Code    10  anon$$obj.o(Veneer$$Code)
    Long Thumb to Thumb Veneer to __aeabi_memclr 0x1802505b   Thumb Code    10  anon$$obj.o(Veneer$$Code)
    Long Thumb to Thumb Veneer to printf_uart 0x18025065   Thumb Code    10  anon$$obj.o(Veneer$$Code)
    sonix_load_table                         0x60000000   Data          72  sonix_load_table.o(.ARM.__AT_0x60000000)
    CYB_CMD1_INFLASH                         0x60030000   Data           0  rd_wr_flash.o(.ARM.__at_0x60030000)
    CYB_CMD1_INFLASH_END                     0x60039a94   Data           0  rd_wr_flash.o(.ARM.__at_0x60030000)



==============================================================================

Memory Map of the image

  Image Entry point : 0x00000125

  Load Region LR_PRAM (Base: 0x00000000, Size: 0x0000d67c, Max: 0x00010000, ABSOLUTE)

    Execution Region ER_PRAM (Base: 0x00000000, Size: 0x0000d418, Max: 0x00010000, ABSOLUTE)

    Base Addr    Size         Type   Attr      Idx    E Section Name        Object

    0x00000000   0x00000124   Data   RO          405    RESET               startup.o
    0x00000124   0x00000008   Code   RO         1823  * !!!main             c_w.l(__main.o)
    0x0000012c   0x00000034   Code   RO         2236    !!!scatter          c_w.l(__scatter.o)
    0x00000160   0x0000001a   Code   RO         2238    !!handler_copy      c_w.l(__scatter_copy.o)
    0x0000017a   0x00000002   PAD
    0x0000017c   0x0000001c   Code   RO         2240    !!handler_zi        c_w.l(__scatter_zi.o)
    0x00000198   0x00000000   Code   RO         1964    .ARM.Collect$$_printf_percent$$00000000  c_w.l(_printf_percent.o)
    0x00000198   0x00000006   Code   RO         1953    .ARM.Collect$$_printf_percent$$00000001  c_w.l(_printf_n.o)
    0x0000019e   0x00000006   Code   RO         1955    .ARM.Collect$$_printf_percent$$00000002  c_w.l(_printf_p.o)
    0x000001a4   0x00000006   Code   RO         1960    .ARM.Collect$$_printf_percent$$00000003  c_w.l(_printf_f.o)
    0x000001aa   0x00000006   Code   RO         1961    .ARM.Collect$$_printf_percent$$00000004  c_w.l(_printf_e.o)
    0x000001b0   0x00000006   Code   RO         1962    .ARM.Collect$$_printf_percent$$00000005  c_w.l(_printf_g.o)
    0x000001b6   0x00000006   Code   RO         1963    .ARM.Collect$$_printf_percent$$00000006  c_w.l(_printf_a.o)
    0x000001bc   0x0000000a   Code   RO         1968    .ARM.Collect$$_printf_percent$$00000007  c_w.l(_printf_ll.o)
    0x000001c6   0x00000006   Code   RO         1957    .ARM.Collect$$_printf_percent$$00000008  c_w.l(_printf_i.o)
    0x000001cc   0x00000006   Code   RO         1958    .ARM.Collect$$_printf_percent$$00000009  c_w.l(_printf_d.o)
    0x000001d2   0x00000006   Code   RO         1959    .ARM.Collect$$_printf_percent$$0000000A  c_w.l(_printf_u.o)
    0x000001d8   0x00000006   Code   RO         1956    .ARM.Collect$$_printf_percent$$0000000B  c_w.l(_printf_o.o)
    0x000001de   0x00000006   Code   RO         1954    .ARM.Collect$$_printf_percent$$0000000C  c_w.l(_printf_x.o)
    0x000001e4   0x00000006   Code   RO         1965    .ARM.Collect$$_printf_percent$$0000000D  c_w.l(_printf_lli.o)
    0x000001ea   0x00000006   Code   RO         1966    .ARM.Collect$$_printf_percent$$0000000E  c_w.l(_printf_lld.o)
    0x000001f0   0x00000006   Code   RO         1967    .ARM.Collect$$_printf_percent$$0000000F  c_w.l(_printf_llu.o)
    0x000001f6   0x00000006   Code   RO         1972    .ARM.Collect$$_printf_percent$$00000010  c_w.l(_printf_llo.o)
    0x000001fc   0x00000006   Code   RO         1973    .ARM.Collect$$_printf_percent$$00000011  c_w.l(_printf_llx.o)
    0x00000202   0x0000000a   Code   RO         1969    .ARM.Collect$$_printf_percent$$00000012  c_w.l(_printf_l.o)
    0x0000020c   0x00000006   Code   RO         1951    .ARM.Collect$$_printf_percent$$00000013  c_w.l(_printf_c.o)
    0x00000212   0x00000006   Code   RO         1952    .ARM.Collect$$_printf_percent$$00000014  c_w.l(_printf_s.o)
    0x00000218   0x00000006   Code   RO         1970    .ARM.Collect$$_printf_percent$$00000015  c_w.l(_printf_lc.o)
    0x0000021e   0x00000006   Code   RO         1971    .ARM.Collect$$_printf_percent$$00000016  c_w.l(_printf_ls.o)
    0x00000224   0x00000004   Code   RO         2085    .ARM.Collect$$_printf_percent$$00000017  c_w.l(_printf_percent_end.o)
    0x00000228   0x00000002   Code   RO         2162    .ARM.Collect$$libinit$$00000000  c_w.l(libinit.o)
    0x0000022a   0x00000000   Code   RO         1977    .ARM.Collect$$libinit$$00000002  c_w.l(libinit2.o)
    0x0000022a   0x00000000   Code   RO         1979    .ARM.Collect$$libinit$$00000004  c_w.l(libinit2.o)
    0x0000022a   0x00000008   Code   RO         1980    .ARM.Collect$$libinit$$00000005  c_w.l(libinit2.o)
    0x00000232   0x00000000   Code   RO         1982    .ARM.Collect$$libinit$$0000000A  c_w.l(libinit2.o)
    0x00000232   0x00000000   Code   RO         1984    .ARM.Collect$$libinit$$0000000C  c_w.l(libinit2.o)
    0x00000232   0x00000000   Code   RO         1986    .ARM.Collect$$libinit$$0000000E  c_w.l(libinit2.o)
    0x00000232   0x00000006   Code   RO         1987    .ARM.Collect$$libinit$$0000000F  c_w.l(libinit2.o)
    0x00000238   0x00000000   Code   RO         1989    .ARM.Collect$$libinit$$00000011  c_w.l(libinit2.o)
    0x00000238   0x0000000c   Code   RO         1990    .ARM.Collect$$libinit$$00000012  c_w.l(libinit2.o)
    0x00000244   0x00000000   Code   RO         1991    .ARM.Collect$$libinit$$00000013  c_w.l(libinit2.o)
    0x00000244   0x00000000   Code   RO         1993    .ARM.Collect$$libinit$$00000015  c_w.l(libinit2.o)
    0x00000244   0x0000000a   Code   RO         1994    .ARM.Collect$$libinit$$00000016  c_w.l(libinit2.o)
    0x0000024e   0x00000000   Code   RO         1995    .ARM.Collect$$libinit$$00000017  c_w.l(libinit2.o)
    0x0000024e   0x00000000   Code   RO         1997    .ARM.Collect$$libinit$$00000019  c_w.l(libinit2.o)
    0x0000024e   0x00000000   Code   RO         1999    .ARM.Collect$$libinit$$0000001B  c_w.l(libinit2.o)
    0x0000024e   0x00000000   Code   RO         2001    .ARM.Collect$$libinit$$0000001D  c_w.l(libinit2.o)
    0x0000024e   0x00000000   Code   RO         2003    .ARM.Collect$$libinit$$0000001F  c_w.l(libinit2.o)
    0x0000024e   0x00000000   Code   RO         2005    .ARM.Collect$$libinit$$00000021  c_w.l(libinit2.o)
    0x0000024e   0x00000000   Code   RO         2007    .ARM.Collect$$libinit$$00000023  c_w.l(libinit2.o)
    0x0000024e   0x00000000   Code   RO         2009    .ARM.Collect$$libinit$$00000025  c_w.l(libinit2.o)
    0x0000024e   0x00000000   Code   RO         2013    .ARM.Collect$$libinit$$0000002C  c_w.l(libinit2.o)
    0x0000024e   0x00000000   Code   RO         2015    .ARM.Collect$$libinit$$0000002E  c_w.l(libinit2.o)
    0x0000024e   0x00000000   Code   RO         2017    .ARM.Collect$$libinit$$00000030  c_w.l(libinit2.o)
    0x0000024e   0x00000000   Code   RO         2019    .ARM.Collect$$libinit$$00000032  c_w.l(libinit2.o)
    0x0000024e   0x00000002   Code   RO         2020    .ARM.Collect$$libinit$$00000033  c_w.l(libinit2.o)
    0x00000250   0x00000002   Code   RO         2233    .ARM.Collect$$libshutdown$$00000000  c_w.l(libshutdown.o)
    0x00000252   0x00000000   Code   RO         2189    .ARM.Collect$$libshutdown$$00000002  c_w.l(libshutdown2.o)
    0x00000252   0x00000000   Code   RO         2191    .ARM.Collect$$libshutdown$$00000004  c_w.l(libshutdown2.o)
    0x00000252   0x00000000   Code   RO         2194    .ARM.Collect$$libshutdown$$00000007  c_w.l(libshutdown2.o)
    0x00000252   0x00000000   Code   RO         2197    .ARM.Collect$$libshutdown$$0000000A  c_w.l(libshutdown2.o)
    0x00000252   0x00000000   Code   RO         2199    .ARM.Collect$$libshutdown$$0000000C  c_w.l(libshutdown2.o)
    0x00000252   0x00000000   Code   RO         2202    .ARM.Collect$$libshutdown$$0000000F  c_w.l(libshutdown2.o)
    0x00000252   0x00000002   Code   RO         2203    .ARM.Collect$$libshutdown$$00000010  c_w.l(libshutdown2.o)
    0x00000254   0x00000000   Code   RO         1853    .ARM.Collect$$rtentry$$00000000  c_w.l(__rtentry.o)
    0x00000254   0x00000000   Code   RO         2044    .ARM.Collect$$rtentry$$00000002  c_w.l(__rtentry2.o)
    0x00000254   0x00000006   Code   RO         2056    .ARM.Collect$$rtentry$$00000004  c_w.l(__rtentry4.o)
    0x0000025a   0x00000000   Code   RO         2046    .ARM.Collect$$rtentry$$00000009  c_w.l(__rtentry2.o)
    0x0000025a   0x00000004   Code   RO         2047    .ARM.Collect$$rtentry$$0000000A  c_w.l(__rtentry2.o)
    0x0000025e   0x00000000   Code   RO         2049    .ARM.Collect$$rtentry$$0000000C  c_w.l(__rtentry2.o)
    0x0000025e   0x00000008   Code   RO         2050    .ARM.Collect$$rtentry$$0000000D  c_w.l(__rtentry2.o)
    0x00000266   0x00000002   Code   RO         2169    .ARM.Collect$$rtexit$$00000000  c_w.l(rtexit.o)
    0x00000268   0x00000000   Code   RO         2207    .ARM.Collect$$rtexit$$00000002  c_w.l(rtexit2.o)
    0x00000268   0x00000004   Code   RO         2208    .ARM.Collect$$rtexit$$00000003  c_w.l(rtexit2.o)
    0x0000026c   0x00000006   Code   RO         2209    .ARM.Collect$$rtexit$$00000004  c_w.l(rtexit2.o)
    0x00000272   0x00000002   PAD
    0x00000274   0x00000000   Code   RO         2064    .emb_text           c_w.l(maybetermalloc1.o)
    0x00000274   0x00000a08   Code   RO            3    .text               main.o
    0x00000c7c   0x00000254   Code   RO          369    .text               bsp.o
    0x00000ed0   0x00000050   Code   RO          406    .text               startup.o
    0x00000f20   0x00000320   Code   RO          727    .text               snc7320_codec.lib(codec.o)
    0x00001240   0x000007d8   Code   RO          772    .text               snc7320_gpio.lib(gpio.o)
    0x00001a18   0x00000980   Code   RO          810    .text               snc7320_i2c.lib(i2c.o)
    0x00002398   0x00000564   Code   RO          845    .text               snc7320_spifc.lib(spifc.o)
    0x000028fc   0x000001a8   Code   RO          884    .text               snc7320_util.lib(log_util.o)
    0x00002aa4   0x00000590   Code   RO          933    .text               snc7320_timer_pwm.lib(timer_pwm.o)
    0x00003034   0x000000e0   Code   RO          969    .text               snc7320_saradc.lib(sar_adc.o)
    0x00003114   0x00000724   Code   RO         1193    .text               snc7320_i2s.lib(i2s.o)
    0x00003838   0x00000538   Code   RO         1233    .text               snc7320_idma.lib(idma.o)
    0x00003d70   0x0000005e   Code   RO         1745    .text               c_w.l(h1_alloc.o)
    0x00003dce   0x0000004e   Code   RO         1747    .text               c_w.l(h1_free.o)
    0x00003e1c   0x00000034   Code   RO         1809    .text               c_w.l(vsnprintf.o)
    0x00003e50   0x00000064   Code   RO         1813    .text               c_w.l(rt_memcpy_w.o)
    0x00003eb4   0x00000044   Code   RO         1817    .text               c_w.l(rt_memclr.o)
    0x00003ef8   0x0000004e   Code   RO         1819    .text               c_w.l(rt_memclr_w.o)
    0x00003f46   0x00000006   Code   RO         1821    .text               c_w.l(heapauxi.o)
    0x00003f4c   0x00000008   Code   RO         1857    .text               c_w.l(rt_heap_descriptor_intlibspace.o)
    0x00003f54   0x00000004   Code   RO         1859    .text               c_w.l(hguard.o)
    0x00003f58   0x0000008a   Code   RO         1861    .text               c_w.l(init_alloc.o)
    0x00003fe2   0x0000000e   Code   RO         1865    .text               c_w.l(h1_init.o)
    0x00003ff0   0x0000004e   Code   RO         1883    .text               c_w.l(_printf_pad.o)
    0x0000403e   0x00000024   Code   RO         1885    .text               c_w.l(_printf_truncate.o)
    0x00004062   0x00000052   Code   RO         1887    .text               c_w.l(_printf_str.o)
    0x000040b4   0x00000078   Code   RO         1889    .text               c_w.l(_printf_dec.o)
    0x0000412c   0x00000028   Code   RO         1891    .text               c_w.l(_printf_charcount.o)
    0x00004154   0x00000030   Code   RO         1893    .text               c_w.l(_printf_char_common.o)
    0x00004184   0x0000000a   Code   RO         1895    .text               c_w.l(_sputc.o)
    0x0000418e   0x00000010   Code   RO         1897    .text               c_w.l(_snputc.o)
    0x0000419e   0x00000002   PAD
    0x000041a0   0x000000bc   Code   RO         1899    .text               c_w.l(_printf_wctomb.o)
    0x0000425c   0x0000007c   Code   RO         1902    .text               c_w.l(_printf_longlong_dec.o)
    0x000042d8   0x00000070   Code   RO         1908    .text               c_w.l(_printf_oct_int_ll.o)
    0x00004348   0x00000094   Code   RO         1928    .text               c_w.l(_printf_hex_int_ll_ptr.o)
    0x000043dc   0x00000188   Code   RO         1948    .text               c_w.l(__printf_flags_ss_wp.o)
    0x00004564   0x00000008   Code   RO         2040    .text               c_w.l(libspace.o)
    0x0000456c   0x00000034   Code   RO         2066    .text               c_w.l(h1_extend.o)
    0x000045a0   0x0000008a   Code   RO         2070    .text               c_w.l(lludiv10.o)
    0x0000462a   0x000000b2   Code   RO         2072    .text               c_w.l(_printf_intcommon.o)
    0x000046dc   0x0000041a   Code   RO         2074    .text               c_w.l(_printf_fp_dec.o)
    0x00004af6   0x00000002   PAD
    0x00004af8   0x000002fc   Code   RO         2076    .text               c_w.l(_printf_fp_hex.o)
    0x00004df4   0x0000002c   Code   RO         2081    .text               c_w.l(_printf_char.o)
    0x00004e20   0x0000002c   Code   RO         2083    .text               c_w.l(_printf_wchar.o)
    0x00004e4c   0x00000040   Code   RO         2086    .text               c_w.l(_wcrtomb.o)
    0x00004e8c   0x0000000e   Code   RO         2088    .text               c_w.l(defsig_rtmem_outer.o)
    0x00004e9a   0x00000002   Code   RO         2099    .text               c_w.l(use_no_semi.o)
    0x00004e9c   0x00000000   Code   RO         2101    .text               c_w.l(indicate_semi.o)
    0x00004e9c   0x0000004a   Code   RO         2102    .text               c_w.l(sys_stackheap_outer.o)
    0x00004ee6   0x00000002   PAD
    0x00004ee8   0x00000010   Code   RO         2104    .text               c_w.l(rt_ctype_table.o)
    0x00004ef8   0x00000008   Code   RO         2113    .text               c_w.l(rt_locale_intlibspace.o)
    0x00004f00   0x00000080   Code   RO         2117    .text               c_w.l(_printf_fp_infnan.o)
    0x00004f80   0x000000dc   Code   RO         2119    .text               c_w.l(bigflt0.o)
    0x0000505c   0x00000012   Code   RO         2147    .text               c_w.l(exit.o)
    0x0000506e   0x0000000a   Code   RO         2149    .text               c_w.l(defsig_exit.o)
    0x00005078   0x00000050   Code   RO         2151    .text               c_w.l(defsig_rtmem_inner.o)
    0x000050c8   0x0000000c   Code   RO         2167    .text               c_w.l(sys_exit.o)
    0x000050d4   0x00000032   Code   RO         2180    .text               c_w.l(defsig_general.o)
    0x00005106   0x00000002   PAD
    0x00005108   0x00000080   Code   RO         2186    .text               c_w.l(strcmpv7m.o)
    0x00005188   0x0000000e   Code   RO         2204    .text               c_w.l(sys_wrch.o)
    0x00005196   0x0000003e   Code   RO         2122    CL$$btod_d2e        c_w.l(btod.o)
    0x000051d4   0x00000046   Code   RO         2124    CL$$btod_d2e_denorm_low  c_w.l(btod.o)
    0x0000521a   0x00000060   Code   RO         2123    CL$$btod_d2e_norm_op1  c_w.l(btod.o)
    0x0000527a   0x00000338   Code   RO         2132    CL$$btod_div_common  c_w.l(btod.o)
    0x000055b2   0x000000c6   Code   RO         2129    CL$$btod_e2e        c_w.l(btod.o)
    0x00005678   0x00000028   Code   RO         2126    CL$$btod_ediv       c_w.l(btod.o)
    0x000056a0   0x00000028   Code   RO         2125    CL$$btod_emul       c_w.l(btod.o)
    0x000056c8   0x00000244   Code   RO         2131    CL$$btod_mult_common  c_w.l(btod.o)
    0x0000590c   0x0000000a   Ven    RO         2242    Veneer$$Code        anon$$obj.o
    0x00005916   0x0000000a   Ven    RO         2243    Veneer$$Code        anon$$obj.o
    0x00005920   0x0000000a   Ven    RO         2244    Veneer$$Code        anon$$obj.o
    0x0000592a   0x0000000a   Ven    RO         2245    Veneer$$Code        anon$$obj.o
    0x00005934   0x0000000a   Ven    RO         2246    Veneer$$Code        anon$$obj.o
    0x0000593e   0x0000000a   Ven    RO         2247    Veneer$$Code        anon$$obj.o
    0x00005948   0x0000000a   Ven    RO         2248    Veneer$$Code        anon$$obj.o
    0x00005952   0x0000000a   Ven    RO         2249    Veneer$$Code        anon$$obj.o
    0x0000595c   0x0000000a   Ven    RO         2250    Veneer$$Code        anon$$obj.o
    0x00005966   0x0000000a   Ven    RO         2251    Veneer$$Code        anon$$obj.o
    0x00005970   0x0000000a   Ven    RO         2252    Veneer$$Code        anon$$obj.o
    0x0000597a   0x0000000a   Ven    RO         2253    Veneer$$Code        anon$$obj.o
    0x00005984   0x0000000a   Ven    RO         2254    Veneer$$Code        anon$$obj.o
    0x0000598e   0x0000000a   Ven    RO         2255    Veneer$$Code        anon$$obj.o
    0x00005998   0x0000000a   Ven    RO         2256    Veneer$$Code        anon$$obj.o
    0x000059a2   0x0000000a   Ven    RO         2257    Veneer$$Code        anon$$obj.o
    0x000059ac   0x0000002c   Code   RO         1420    i.BsrAbby           libCSpotterSDK_16k_24d_A_SNC7312_arm-cm3_V6.4.5_b20180726.lib(BsrJoe.o)
    0x000059d8   0x00000082   Code   RO         1421    i.BsrAbel           libCSpotterSDK_16k_24d_A_SNC7312_arm-cm3_V6.4.5_b20180726.lib(BsrJoe.o)
    0x00005a5a   0x000000e4   Code   RO         1422    i.BsrAdam           libCSpotterSDK_16k_24d_A_SNC7312_arm-cm3_V6.4.5_b20180726.lib(BsrJoe.o)
    0x00005b3e   0x000000fc   Code   RO         1288    i.BsrAlma           libCSpotterSDK_16k_24d_A_SNC7312_arm-cm3_V6.4.5_b20180726.lib(BsrDon.o)
    0x00005c3a   0x00000018   Code   RO         1289    i.BsrAmir           libCSpotterSDK_16k_24d_A_SNC7312_arm-cm3_V6.4.5_b20180726.lib(BsrDon.o)
    0x00005c52   0x00000134   Code   RO         1290    i.BsrAmos           libCSpotterSDK_16k_24d_A_SNC7312_arm-cm3_V6.4.5_b20180726.lib(BsrDon.o)
    0x00005d86   0x00000028   Code   RO         1324    i.BsrAna            libCSpotterSDK_16k_24d_A_SNC7312_arm-cm3_V6.4.5_b20180726.lib(BsrJim.o)
    0x00005dae   0x00000024   Code   RO         1292    i.BsrAnna           libCSpotterSDK_16k_24d_A_SNC7312_arm-cm3_V6.4.5_b20180726.lib(BsrDon.o)
    0x00005dd2   0x00000016   Code   RO         1293    i.BsrAnne           libCSpotterSDK_16k_24d_A_SNC7312_arm-cm3_V6.4.5_b20180726.lib(BsrDon.o)
    0x00005de8   0x00000020   Code   RO         1294    i.BsrAnnie          libCSpotterSDK_16k_24d_A_SNC7312_arm-cm3_V6.4.5_b20180726.lib(BsrDon.o)
    0x00005e08   0x000000c0   Code   RO         1325    i.BsrAri            libCSpotterSDK_16k_24d_A_SNC7312_arm-cm3_V6.4.5_b20180726.lib(BsrJim.o)
    0x00005ec8   0x00000108   Code   RO         1326    i.BsrAsa            libCSpotterSDK_16k_24d_A_SNC7312_arm-cm3_V6.4.5_b20180726.lib(BsrJim.o)
    0x00005fd0   0x000000b6   Code   RO         1328    i.BsrAvea           libCSpotterSDK_16k_24d_A_SNC7312_arm-cm3_V6.4.5_b20180726.lib(BsrJim.o)
    0x00006086   0x00000018   Code   RO         1300    i.BsrAyla           libCSpotterSDK_16k_24d_A_SNC7312_arm-cm3_V6.4.5_b20180726.lib(BsrDon.o)
    0x0000609e   0x0000000c   Code   RO         1301    i.BsrBaby           libCSpotterSDK_16k_24d_A_SNC7312_arm-cm3_V6.4.5_b20180726.lib(BsrDon.o)
    0x000060aa   0x00000002   PAD
    0x000060ac   0x00000128   Code   RO         1329    i.BsrBen            libCSpotterSDK_16k_24d_A_SNC7312_arm-cm3_V6.4.5_b20180726.lib(BsrJim.o)
    0x000061d4   0x00000038   Code   RO         1285    i.BsrBrad           libCSpotterSDK_16k_24d_A_SNC7312_arm-cm3_V6.4.5_b20180726.lib(BsrBen.o)
    0x0000620c   0x0000012c   Code   RO         1603    i.BsrBret           libCSpotterSDK_16k_24d_A_SNC7312_arm-cm3_V6.4.5_b20180726.lib(BsrJay.o)
    0x00006338   0x00000158   Code   RO         1604    i.BsrCade           libCSpotterSDK_16k_24d_A_SNC7312_arm-cm3_V6.4.5_b20180726.lib(BsrJay.o)
    0x00006490   0x000000fc   Code   RO         1605    i.BsrCadea          libCSpotterSDK_16k_24d_A_SNC7312_arm-cm3_V6.4.5_b20180726.lib(BsrJay.o)
    0x0000658c   0x00000052   Code   RO         1606    i.BsrCale           libCSpotterSDK_16k_24d_A_SNC7312_arm-cm3_V6.4.5_b20180726.lib(BsrJay.o)
    0x000065de   0x00000002   PAD
    0x000065e0   0x000003cc   Code   RO         1607    i.BsrCara           libCSpotterSDK_16k_24d_A_SNC7312_arm-cm3_V6.4.5_b20180726.lib(BsrJay.o)
    0x000069ac   0x000000bc   Code   RO         1608    i.BsrCarae          libCSpotterSDK_16k_24d_A_SNC7312_arm-cm3_V6.4.5_b20180726.lib(BsrJay.o)
    0x00006a68   0x000000d0   Code   RO         1609    i.BsrChad           libCSpotterSDK_16k_24d_A_SNC7312_arm-cm3_V6.4.5_b20180726.lib(BsrJay.o)
    0x00006b38   0x0000004c   Code   RO         1610    i.BsrChada          libCSpotterSDK_16k_24d_A_SNC7312_arm-cm3_V6.4.5_b20180726.lib(BsrJay.o)
    0x00006b84   0x000000dc   Code   RO         1611    i.BsrChaz           libCSpotterSDK_16k_24d_A_SNC7312_arm-cm3_V6.4.5_b20180726.lib(BsrJay.o)
    0x00006c60   0x000000a0   Code   RO         1612    i.BsrChaza          libCSpotterSDK_16k_24d_A_SNC7312_arm-cm3_V6.4.5_b20180726.lib(BsrJay.o)
    0x00006d00   0x000000d8   Code   RO         1613    i.BsrChaze          libCSpotterSDK_16k_24d_A_SNC7312_arm-cm3_V6.4.5_b20180726.lib(BsrJay.o)
    0x00006dd8   0x000000c4   Code   RO         1614    i.BsrChazi          libCSpotterSDK_16k_24d_A_SNC7312_arm-cm3_V6.4.5_b20180726.lib(BsrJay.o)
    0x00006e9c   0x0000059e   Code   RO         1615    i.BsrClay           libCSpotterSDK_16k_24d_A_SNC7312_arm-cm3_V6.4.5_b20180726.lib(BsrJay.o)
    0x0000743a   0x00000002   PAD
    0x0000743c   0x000001dc   Code   RO         1631    i.BsrCory           libCSpotterSDK_16k_24d_A_SNC7312_arm-cm3_V6.4.5_b20180726.lib(BsrJoy.o)
    0x00007618   0x00000020   Code   RO         1632    i.BsrCoty           libCSpotterSDK_16k_24d_A_SNC7312_arm-cm3_V6.4.5_b20180726.lib(BsrJoy.o)
    0x00007638   0x0000005a   Code   RO         1331    i.BsrDan            libCSpotterSDK_16k_24d_A_SNC7312_arm-cm3_V6.4.5_b20180726.lib(BsrJim.o)
    0x00007692   0x00000008   Code   RO         1636    i.BsrDane           libCSpotterSDK_16k_24d_A_SNC7312_arm-cm3_V6.4.5_b20180726.lib(BsrJoy.o)
    0x0000769a   0x00000008   Code   RO         1638    i.BsrDawn           libCSpotterSDK_16k_24d_A_SNC7312_arm-cm3_V6.4.5_b20180726.lib(BsrJoy.o)
    0x000076a2   0x00000002   PAD
    0x000076a4   0x00000082   Code   RO         1639    i.BsrDeja           libCSpotterSDK_16k_24d_A_SNC7312_arm-cm3_V6.4.5_b20180726.lib(BsrJoy.o)
    0x00007726   0x00000002   PAD
    0x00007728   0x00000160   Code   RO         1640    i.BsrDemi           libCSpotterSDK_16k_24d_A_SNC7312_arm-cm3_V6.4.5_b20180726.lib(BsrJoy.o)
    0x00007888   0x00000146   Code   RO         1641    i.BsrDeon           libCSpotterSDK_16k_24d_A_SNC7312_arm-cm3_V6.4.5_b20180726.lib(BsrJoy.o)
    0x000079ce   0x00000002   PAD
    0x000079d0   0x00000228   Code   RO         1642    i.BsrDina           libCSpotterSDK_16k_24d_A_SNC7312_arm-cm3_V6.4.5_b20180726.lib(BsrJoy.o)
    0x00007bf8   0x000000d0   Code   RO         1643    i.BsrDion           libCSpotterSDK_16k_24d_A_SNC7312_arm-cm3_V6.4.5_b20180726.lib(BsrJoy.o)
    0x00007cc8   0x00000174   Code   RO         1595    i.BsrEden           libCSpotterSDK_16k_24d_A_SNC7312_arm-cm3_V6.4.5_b20180726.lib(BsrEva.o)
    0x00007e3c   0x0000005c   Code   RO         1334    i.BsrEli            libCSpotterSDK_16k_24d_A_SNC7312_arm-cm3_V6.4.5_b20180726.lib(BsrJim.o)
    0x00007e98   0x000001d0   Code   RO         1596    i.BsrElla           libCSpotterSDK_16k_24d_A_SNC7312_arm-cm3_V6.4.5_b20180726.lib(BsrEva.o)
    0x00008068   0x000001a0   Code   RO         1597    i.BsrElsa           libCSpotterSDK_16k_24d_A_SNC7312_arm-cm3_V6.4.5_b20180726.lib(BsrEva.o)
    0x00008208   0x000000de   Code   RO         1582    i.BsrEmma           libCSpotterSDK_16k_24d_A_SNC7312_arm-cm3_V6.4.5_b20180726.lib(BsrEli.o)
    0x000082e6   0x0000008c   Code   RO         1583    i.BsrEric           libCSpotterSDK_16k_24d_A_SNC7312_arm-cm3_V6.4.5_b20180726.lib(BsrEli.o)
    0x00008372   0x00000002   PAD
    0x00008374   0x00000124   Code   RO         1584    i.BsrErica          libCSpotterSDK_16k_24d_A_SNC7312_arm-cm3_V6.4.5_b20180726.lib(BsrEli.o)
    0x00008498   0x0000003c   Code   RO         1585    i.BsrErik           libCSpotterSDK_16k_24d_A_SNC7312_arm-cm3_V6.4.5_b20180726.lib(BsrEli.o)
    0x000084d4   0x000000fc   Code   RO         1586    i.BsrErin           libCSpotterSDK_16k_24d_A_SNC7312_arm-cm3_V6.4.5_b20180726.lib(BsrEli.o)
    0x000085d0   0x00000022   Code   RO         1335    i.BsrEva            libCSpotterSDK_16k_24d_A_SNC7312_arm-cm3_V6.4.5_b20180726.lib(BsrJim.o)
    0x000085f2   0x0000003a   Code   RO         1587    i.BsrEvan           libCSpotterSDK_16k_24d_A_SNC7312_arm-cm3_V6.4.5_b20180726.lib(BsrEli.o)
    0x0000862c   0x000000b4   Code   RO         1669    i.BsrGary           libCSpotterSDK_16k_24d_A_SNC7312_arm-cm3_V6.4.5_b20180726.lib(BsrAna.o)
    0x000086e0   0x000001ac   Code   RO         1674    i.BsrGreg           libCSpotterSDK_16k_24d_A_SNC7312_arm-cm3_V6.4.5_b20180726.lib(BsrAnn.o)
    0x0000888c   0x0000003c   Code   RO         1337    i.BsrGuy            libCSpotterSDK_16k_24d_A_SNC7312_arm-cm3_V6.4.5_b20180726.lib(BsrJim.o)
    0x000088c8   0x000000d0   Code   RO         1683    i.BsrHugo           libCSpotterSDK_16k_24d_A_SNC7312_arm-cm3_V6.4.5_b20180726.lib(BsrGuy.o)
    0x00008998   0x00000038   Code   RO         1684    i.BsrIris           libCSpotterSDK_16k_24d_A_SNC7312_arm-cm3_V6.4.5_b20180726.lib(BsrGuy.o)
    0x000089d0   0x00000058   Code   RO         1685    i.BsrIrma           libCSpotterSDK_16k_24d_A_SNC7312_arm-cm3_V6.4.5_b20180726.lib(BsrGuy.o)
    0x00008a28   0x00000036   Code   RO         1686    i.BsrIsai           libCSpotterSDK_16k_24d_A_SNC7312_arm-cm3_V6.4.5_b20180726.lib(BsrGuy.o)
    0x00008a5e   0x000000b4   Code   RO         1339    i.BsrIvy            libCSpotterSDK_16k_24d_A_SNC7312_arm-cm3_V6.4.5_b20180726.lib(BsrJim.o)
    0x00008b12   0x00000002   PAD
    0x00008b14   0x000000d8   Code   RO         1645    i.BsrJamii          libCSpotterSDK_16k_24d_A_SNC7312_arm-cm3_V6.4.5_b20180726.lib(BsrJoy.o)
    0x00008bec   0x00000014   Code   RO         1341    i.BsrJan            libCSpotterSDK_16k_24d_A_SNC7312_arm-cm3_V6.4.5_b20180726.lib(BsrJim.o)
    0x00008c00   0x0000016c   Code   RO         1616    i.BsrJeni           libCSpotterSDK_16k_24d_A_SNC7312_arm-cm3_V6.4.5_b20180726.lib(BsrJay.o)
    0x00008d6c   0x00000148   Code   RO         1436    i.BsrJoan           libCSpotterSDK_16k_24d_A_SNC7312_arm-cm3_V6.4.5_b20180726.lib(BsrKai.o)
    0x00008eb4   0x0000002c   Code   RO         1000    i.BsrJohn           libCSpotterSDK_16k_24d_A_SNC7312_arm-cm3_V6.4.5_b20180726.lib(BsrAli.o)
    0x00008ee0   0x0000003c   Code   RO         1001    i.BsrJose           libCSpotterSDK_16k_24d_A_SNC7312_arm-cm3_V6.4.5_b20180726.lib(BsrAli.o)
    0x00008f1c   0x000000b2   Code   RO         1002    i.BsrJosh           libCSpotterSDK_16k_24d_A_SNC7312_arm-cm3_V6.4.5_b20180726.lib(BsrAli.o)
    0x00008fce   0x00000002   PAD
    0x00008fd0   0x000000ec   Code   RO         1352    i.BsrJoyci          libCSpotterSDK_16k_24d_A_SNC7312_arm-cm3_V6.4.5_b20180726.lib(BsrJim.o)
    0x000090bc   0x0000003a   Code   RO         1598    i.BsrJuanitez       libCSpotterSDK_16k_24d_A_SNC7312_arm-cm3_V6.4.5_b20180726.lib(BsrEva.o)
    0x000090f6   0x0000001c   Code   RO         1359    i.BsrLei            libCSpotterSDK_16k_24d_A_SNC7312_arm-cm3_V6.4.5_b20180726.lib(BsrJim.o)
    0x00009112   0x00000002   PAD
    0x00009114   0x00000574   Code   RO         1365    i.BsrMichael        libCSpotterSDK_16k_24d_A_SNC7312_arm-cm3_V6.4.5_b20180726.lib(BsrJim.o)
    0x00009688   0x00000008   Code   RO         1366    i.BsrMichelle       libCSpotterSDK_16k_24d_A_SNC7312_arm-cm3_V6.4.5_b20180726.lib(BsrJim.o)
    0x00009690   0x000000ce   Code   RO         1368    i.BsrMike           libCSpotterSDK_16k_24d_A_SNC7312_arm-cm3_V6.4.5_b20180726.lib(BsrJim.o)
    0x0000975e   0x0000009c   Code   RO         1438    i.BsrMya            libCSpotterSDK_16k_24d_A_SNC7312_arm-cm3_V6.4.5_b20180726.lib(BsrKai.o)
    0x000097fa   0x00000038   Code   RO         1439    i.BsrNia            libCSpotterSDK_16k_24d_A_SNC7312_arm-cm3_V6.4.5_b20180726.lib(BsrKai.o)
    0x00009832   0x0000011c   Code   RO         1442    i.BsrRay            libCSpotterSDK_16k_24d_A_SNC7312_arm-cm3_V6.4.5_b20180726.lib(BsrKai.o)
    0x0000994e   0x00000010   Code   RO         1443    i.BsrRex            libCSpotterSDK_16k_24d_A_SNC7312_arm-cm3_V6.4.5_b20180726.lib(BsrKai.o)
    0x0000995e   0x0000000e   Code   RO         1444    i.BsrRey            libCSpotterSDK_16k_24d_A_SNC7312_arm-cm3_V6.4.5_b20180726.lib(BsrKai.o)
    0x0000996c   0x000004d4   Code   RO         1445    i.BsrRon            libCSpotterSDK_16k_24d_A_SNC7312_arm-cm3_V6.4.5_b20180726.lib(BsrKai.o)
    0x00009e40   0x0000002c   Code   RO         1446    i.BsrRoy            libCSpotterSDK_16k_24d_A_SNC7312_arm-cm3_V6.4.5_b20180726.lib(BsrKai.o)
    0x00009e6c   0x0000000e   Code   RO         1447    i.BsrTed            libCSpotterSDK_16k_24d_A_SNC7312_arm-cm3_V6.4.5_b20180726.lib(BsrKai.o)
    0x00009e7a   0x00000072   Code   RO         1448    i.BsrTia            libCSpotterSDK_16k_24d_A_SNC7312_arm-cm3_V6.4.5_b20180726.lib(BsrKai.o)
    0x00009eec   0x0000009e   Code   RO         1449    i.BsrTom            libCSpotterSDK_16k_24d_A_SNC7312_arm-cm3_V6.4.5_b20180726.lib(BsrKai.o)
    0x00009f8a   0x00000062   Code   RO         1450    i.BsrTop            libCSpotterSDK_16k_24d_A_SNC7312_arm-cm3_V6.4.5_b20180726.lib(BsrKai.o)
    0x00009fec   0x00000014   Code   RO         1451    i.BsrTre            libCSpotterSDK_16k_24d_A_SNC7312_arm-cm3_V6.4.5_b20180726.lib(BsrKai.o)
    0x0000a000   0x00000004   Code   RO         1427    i.BsrZoe            libCSpotterSDK_16k_24d_A_SNC7312_arm-cm3_V6.4.5_b20180726.lib(BsrJoe.o)
    0x0000a004   0x00000058   Code   RO          629    i.CSpotter_AddSample  libCSpotterSDK_16k_24d_A_SNC7312_arm-cm3_V6.4.5_b20180726.lib(CSpotterSDKApi.o)
    0x0000a05c   0x00000018   Code   RO          631    i.CSpotter_GetMemoryUsage_Multi  libCSpotterSDK_16k_24d_A_SNC7312_arm-cm3_V6.4.5_b20180726.lib(CSpotterSDKApi.o)
    0x0000a074   0x000000d8   Code   RO          634    i.CSpotter_GetMemoryUsage_MultiWithSpeakerAndExtRejModel  libCSpotterSDK_16k_24d_A_SNC7312_arm-cm3_V6.4.5_b20180726.lib(CSpotterSDKApi.o)
    0x0000a14c   0x00000038   Code   RO          641    i.CSpotter_GetNumWord  libCSpotterSDK_16k_24d_A_SNC7312_arm-cm3_V6.4.5_b20180726.lib(CSpotterSDKApi.o)
    0x0000a184   0x00000020   Code   RO          642    i.CSpotter_GetResult  libCSpotterSDK_16k_24d_A_SNC7312_arm-cm3_V6.4.5_b20180726.lib(CSpotterSDKApi.o)
    0x0000a1a4   0x00000028   Code   RO          649    i.CSpotter_Init_Multi  libCSpotterSDK_16k_24d_A_SNC7312_arm-cm3_V6.4.5_b20180726.lib(CSpotterSDKApi.o)
    0x0000a1cc   0x00000200   Code   RO          650    i.CSpotter_Init_MultiWithExtRejModel  libCSpotterSDK_16k_24d_A_SNC7312_arm-cm3_V6.4.5_b20180726.lib(CSpotterSDKApi.o)
    0x0000a3cc   0x00000030   Code   RO          656    i.CSpotter_Reset    libCSpotterSDK_16k_24d_A_SNC7312_arm-cm3_V6.4.5_b20180726.lib(CSpotterSDKApi.o)
    0x0000a3fc   0x0000002c   Code   RO          670    i.CSpotter_SetRejectionLevel  libCSpotterSDK_16k_24d_A_SNC7312_arm-cm3_V6.4.5_b20180726.lib(CSpotterSDKApi.o)
    0x0000a428   0x00000076   Code   RO         1008    i.NINJA_API_1       libCSpotterSDK_16k_24d_A_SNC7312_arm-cm3_V6.4.5_b20180726.lib(BsrGo.o)
    0x0000a49e   0x00000002   PAD
    0x0000a4a0   0x00000274   Code   RO         1010    i.NINJA_API_11      libCSpotterSDK_16k_24d_A_SNC7312_arm-cm3_V6.4.5_b20180726.lib(BsrGo.o)
    0x0000a714   0x00000164   Code   RO         1012    i.NINJA_API_13      libCSpotterSDK_16k_24d_A_SNC7312_arm-cm3_V6.4.5_b20180726.lib(BsrGo.o)
    0x0000a878   0x00000020   Code   RO         1014    i.NINJA_API_15      libCSpotterSDK_16k_24d_A_SNC7312_arm-cm3_V6.4.5_b20180726.lib(BsrGo.o)
    0x0000a898   0x00000020   Code   RO         1018    i.NINJA_API_19      libCSpotterSDK_16k_24d_A_SNC7312_arm-cm3_V6.4.5_b20180726.lib(BsrGo.o)
    0x0000a8b8   0x00000028   Code   RO         1019    i.NINJA_API_2       libCSpotterSDK_16k_24d_A_SNC7312_arm-cm3_V6.4.5_b20180726.lib(BsrGo.o)
    0x0000a8e0   0x00000024   Code   RO         1022    i.NINJA_API_23      libCSpotterSDK_16k_24d_A_SNC7312_arm-cm3_V6.4.5_b20180726.lib(BsrGo.o)
    0x0000a904   0x00000030   Code   RO         1025    i.NINJA_API_26      libCSpotterSDK_16k_24d_A_SNC7312_arm-cm3_V6.4.5_b20180726.lib(BsrGo.o)
    0x0000a934   0x00000022   Code   RO         1029    i.NINJA_API_3       libCSpotterSDK_16k_24d_A_SNC7312_arm-cm3_V6.4.5_b20180726.lib(BsrGo.o)
    0x0000a956   0x0000000a   Code   RO         1031    i.NINJA_API_31      libCSpotterSDK_16k_24d_A_SNC7312_arm-cm3_V6.4.5_b20180726.lib(BsrGo.o)
    0x0000a960   0x0000006c   Code   RO         1046    i.NINJA_API_47      libCSpotterSDK_16k_24d_A_SNC7312_arm-cm3_V6.4.5_b20180726.lib(BsrGo.o)
    0x0000a9cc   0x00000080   Code   RO         1047    i.NINJA_API_48      libCSpotterSDK_16k_24d_A_SNC7312_arm-cm3_V6.4.5_b20180726.lib(BsrGo.o)
    0x0000aa4c   0x00000036   Code   RO         1052    i.NINJA_API_55      libCSpotterSDK_16k_24d_A_SNC7312_arm-cm3_V6.4.5_b20180726.lib(BsrGo.o)
    0x0000aa82   0x00000026   Code   RO         1053    i.NINJA_API_56      libCSpotterSDK_16k_24d_A_SNC7312_arm-cm3_V6.4.5_b20180726.lib(BsrGo.o)
    0x0000aaa8   0x000003c0   Code   RO         1068    i.NINJA_API_73      libCSpotterSDK_16k_24d_A_SNC7312_arm-cm3_V6.4.5_b20180726.lib(BsrGo.o)
    0x0000ae68   0x000000c4   Code   RO         1070    i.NINJA_API_75      libCSpotterSDK_16k_24d_A_SNC7312_arm-cm3_V6.4.5_b20180726.lib(BsrGo.o)
    0x0000af2c   0x00000028   Code   RO         2165    i.__ARM_fpclassify  m_ws.l(fpclassify.o)
    0x0000af54   0x0000000e   Code   RO         1941    i._is_digit         c_w.l(__printf_wp.o)
    0x0000af62   0x00000002   PAD
    0x0000af64   0x0000002c   Code   RO         2145    locale$$code        c_w.l(lc_numeric_c.o)
    0x0000af90   0x0000002c   Code   RO         2176    locale$$code        c_w.l(lc_ctype_c.o)
    0x0000afbc   0x00000018   Code   RO         2021    x$fpl$dcmpinf       fz_ws.l(dcmpi.o)
    0x0000afd4   0x000002b0   Code   RO         1826    x$fpl$ddiv          fz_ws.l(ddiv.o)
    0x0000b284   0x0000005e   Code   RO         1829    x$fpl$dfix          fz_ws.l(dfix.o)
    0x0000b2e2   0x0000002e   Code   RO         1834    x$fpl$dflt          fz_ws.l(dflt_clz.o)
    0x0000b310   0x00000078   Code   RO         1839    x$fpl$dleqf         fz_ws.l(dleqf.o)
    0x0000b388   0x00000154   Code   RO         1841    x$fpl$dmul          fz_ws.l(dmul.o)
    0x0000b4dc   0x0000009c   Code   RO         2023    x$fpl$dnaninf       fz_ws.l(dnaninf.o)
    0x0000b578   0x0000000c   Code   RO         2025    x$fpl$dretinf       fz_ws.l(dretinf.o)
    0x0000b584   0x00000056   Code   RO         1843    x$fpl$f2d           fz_ws.l(f2d.o)
    0x0000b5da   0x00000002   PAD
    0x0000b5dc   0x00000030   Code   RO         1846    x$fpl$fflt          fz_ws.l(fflt_clz.o)
    0x0000b60c   0x0000008c   Code   RO         2027    x$fpl$fnaninf       fz_ws.l(fnaninf.o)
    0x0000b698   0x00000004   Code   RO         2029    x$fpl$printf1       fz_ws.l(printf1.o)
    0x0000b69c   0x00000004   Code   RO         2031    x$fpl$printf2       fz_ws.l(printf2.o)
    0x0000b6a0   0x00000000   Code   RO         2037    x$fpl$usenofp       fz_ws.l(usenofp.o)
    0x0000b6a0   0x000000fc   Data   RO          371    .constdata          bsp.o
    0x0000b79c   0x00000914   Data   RO         1076    .constdata          libCSpotterSDK_16k_24d_A_SNC7312_arm-cm3_V6.4.5_b20180726.lib(BsrGo.o)
    0x0000c0b0   0x00000018   Data   RO         1234    .constdata          snc7320_idma.lib(idma.o)
    0x0000c0c8   0x00000800   Data   RO         1286    .constdata          libCSpotterSDK_16k_24d_A_SNC7312_arm-cm3_V6.4.5_b20180726.lib(BsrBen.o)
    0x0000c8c8   0x00000064   Data   RO         1588    .constdata          libCSpotterSDK_16k_24d_A_SNC7312_arm-cm3_V6.4.5_b20180726.lib(BsrEli.o)
    0x0000c92c   0x00000009   Data   RO         1646    .constdata          libCSpotterSDK_16k_24d_A_SNC7312_arm-cm3_V6.4.5_b20180726.lib(BsrJoy.o)
    0x0000c935   0x00000001   PAD
    0x0000c936   0x00000284   Data   RO         1671    .constdata          libCSpotterSDK_16k_24d_A_SNC7312_arm-cm3_V6.4.5_b20180726.lib(BsrAna.o)
    0x0000cbba   0x00000404   Data   RO         1678    .constdata          libCSpotterSDK_16k_24d_A_SNC7312_arm-cm3_V6.4.5_b20180726.lib(BsrAnn.o)
    0x0000cfbe   0x00000002   PAD
    0x0000cfc0   0x00000200   Data   RO         1687    .constdata          libCSpotterSDK_16k_24d_A_SNC7312_arm-cm3_V6.4.5_b20180726.lib(BsrGuy.o)
    0x0000d1c0   0x00000008   Data   RO         1900    .constdata          c_w.l(_printf_wctomb.o)
    0x0000d1c8   0x00000028   Data   RO         1929    .constdata          c_w.l(_printf_hex_int_ll_ptr.o)
    0x0000d1f0   0x00000011   Data   RO         1949    .constdata          c_w.l(__printf_flags_ss_wp.o)
    0x0000d201   0x00000026   Data   RO         2077    .constdata          c_w.l(_printf_fp_hex.o)
    0x0000d227   0x00000001   PAD
    0x0000d228   0x00000094   Data   RO         2120    .constdata          c_w.l(bigflt0.o)
    0x0000d2bc   0x00000030   Data   RO         2234    Region$$Table       anon$$obj.o
    0x0000d2ec   0x0000001c   Data   RO         2144    locale$$data        c_w.l(lc_numeric_c.o)
    0x0000d308   0x00000110   Data   RO         2175    locale$$data        c_w.l(lc_ctype_c.o)


    Execution Region RW_SRAM0 (Base: 0x18000000, Size: 0x0001d4b0, Max: 0x0001ec00, ABSOLUTE)

    Base Addr    Size         Type   Attr      Idx    E Section Name        Object

    0x18000000   0x0000011e   Data   RW            5    .data               main.o
    0x1800011e   0x00000002   PAD
    0x18000120   0x000000b4   Data   RW          200    .data               snx_audio_agc.o
    0x180001d4   0x0000000c   Data   RW          242    .data               key.o
    0x180001e0   0x00000008   Data   RW          270    .data               led.o
    0x180001e8   0x0000000a   Data   RW          310    .data               motor.o
    0x180001f2   0x00000002   PAD
    0x180001f4   0x00000016   Data   RW          338    .data               fun_main.o
    0x1800020a   0x00000002   PAD
    0x1800020c   0x00000034   Data   RW          494    .data               i2c_software_master.o
    0x18000240   0x00000002   Data   RW          521    .data               aud_driver.o
    0x18000242   0x00000002   PAD
    0x18000244   0x00000004   Data   RW          565    .data               i2s4.o
    0x18000248   0x00000008   Data   RW          596    .data               uart.o
    0x18000250   0x00000004   Data   RW          811    .data               snc7320_i2c.lib(i2c.o)
    0x18000254   0x0000000c   Data   RW          886    .data               snc7320_util.lib(log_util.o)
    0x18000260   0x00000004   Data   RW         1235    .data               snc7320_idma.lib(idma.o)
    0x18000264   0x000130b4   Zero   RW            4    .bss                main.o
    0x18013318   0x00000020   Zero   RW          309    .bss                motor.o
    0x18013338   0x0000002c   Zero   RW          337    .bss                fun_main.o
    0x18013364   0x00000022   Zero   RW          519    .bss                aud_driver.o
    0x18013386   0x00000002   PAD
    0x18013388   0x00000030   Zero   RW          594    .bss                uart.o
    0x180133b8   0x00000014   Zero   RW          773    .bss                snc7320_gpio.lib(gpio.o)
    0x180133cc   0x00000080   Zero   RW          885    .bss                snc7320_util.lib(log_util.o)
    0x1801344c   0x00000060   Zero   RW         2041    .bss                c_w.l(libspace.o)
    0x180134ac   0x00000004   PAD
    0x180134b0   0x00009000   Zero   RW          404    HEAP                startup.o
    0x1801c4b0   0x00001000   Zero   RW          403    STACK               startup.o



  Load Region LR_FLASH (Base: 0x60025000, Size: 0x000066a4, Max: 0xffffffff, ABSOLUTE)

    Execution Region ER_SRAM2 (Base: 0x1801ec00, Size: 0x000066a4, Max: 0x00009400, ABSOLUTE)

    Base Addr    Size         Type   Attr      Idx    E Section Name        Object

    0x1801ec00   0x00000938   Code   RO          199    .text               snx_audio_agc.o
    0x1801f538   0x00000168   Code   RO          241    .text               key.o
    0x1801f6a0   0x00000454   Code   RO          269    .text               led.o
    0x1801faf4   0x00000298   Code   RO          308    .text               motor.o
    0x1801fd8c   0x000005ac   Code   RO          336    .text               fun_main.o
    0x18020338   0x00000140   Code   RO          421    .text               audio.o
    0x18020478   0x000009ac   Code   RO          493    .text               i2c_software_master.o
    0x18020e24   0x000034f4   Code   RO          518    .text               aud_driver.o
    0x18024318   0x00000628   Code   RO          564    .text               i2s4.o
    0x18024940   0x00000634   Code   RO          593    .text               uart.o
    0x18024f74   0x0000000a   Ven    RO         2258    Veneer$$Code        anon$$obj.o
    0x18024f7e   0x0000000a   Ven    RO         2259    Veneer$$Code        anon$$obj.o
    0x18024f88   0x0000000a   Ven    RO         2260    Veneer$$Code        anon$$obj.o
    0x18024f92   0x0000000a   Ven    RO         2261    Veneer$$Code        anon$$obj.o
    0x18024f9c   0x0000000a   Ven    RO         2262    Veneer$$Code        anon$$obj.o
    0x18024fa6   0x0000000a   Ven    RO         2263    Veneer$$Code        anon$$obj.o
    0x18024fb0   0x0000000a   Ven    RO         2264    Veneer$$Code        anon$$obj.o
    0x18024fba   0x0000000a   Ven    RO         2265    Veneer$$Code        anon$$obj.o
    0x18024fc4   0x0000000a   Ven    RO         2266    Veneer$$Code        anon$$obj.o
    0x18024fce   0x0000000a   Ven    RO         2267    Veneer$$Code        anon$$obj.o
    0x18024fd8   0x0000000a   Ven    RO         2268    Veneer$$Code        anon$$obj.o
    0x18024fe2   0x0000000a   Ven    RO         2269    Veneer$$Code        anon$$obj.o
    0x18024fec   0x0000000a   Ven    RO         2270    Veneer$$Code        anon$$obj.o
    0x18024ff6   0x0000000a   Ven    RO         2271    Veneer$$Code        anon$$obj.o
    0x18025000   0x0000000a   Ven    RO         2272    Veneer$$Code        anon$$obj.o
    0x1802500a   0x0000000a   Ven    RO         2273    Veneer$$Code        anon$$obj.o
    0x18025014   0x0000000a   Ven    RO         2274    Veneer$$Code        anon$$obj.o
    0x1802501e   0x0000000a   Ven    RO         2275    Veneer$$Code        anon$$obj.o
    0x18025028   0x0000000a   Ven    RO         2276    Veneer$$Code        anon$$obj.o
    0x18025032   0x0000000a   Ven    RO         2277    Veneer$$Code        anon$$obj.o
    0x1802503c   0x0000000a   Ven    RO         2278    Veneer$$Code        anon$$obj.o
    0x18025046   0x0000000a   Ven    RO         2279    Veneer$$Code        anon$$obj.o
    0x18025050   0x0000000a   Ven    RO         2280    Veneer$$Code        anon$$obj.o
    0x1802505a   0x0000000a   Ven    RO         2281    Veneer$$Code        anon$$obj.o
    0x18025064   0x0000000a   Ven    RO         2282    Veneer$$Code        anon$$obj.o
    0x1802506e   0x00000002   PAD
    0x18025070   0x000001a4   Data   RO          595    .constdata          uart.o
    0x18025214   0x0000008f   Data   RO          520    .conststring        aud_driver.o



  Load Region LR$$.ARM.__AT_0x60000000 (Base: 0x60000000, Size: 0x00000048, Max: 0x00000048, ABSOLUTE)

    Execution Region ER$$.ARM.__AT_0x60000000 (Base: 0x60000000, Size: 0x00000048, Max: 0x00000048, ABSOLUTE, UNINIT)

    Base Addr    Size         Type   Attr      Idx    E Section Name        Object

    0x60000000   0x00000048   Data   RO          410    .ARM.__AT_0x60000000  sonix_load_table.o



  Load Region LR$$.ARM.__at_0x60030000 (Base: 0x60030000, Size: 0x00009a94, Max: 0x00009a94, ABSOLUTE)

    Execution Region ER$$.ARM.__at_0x60030000 (Base: 0x60030000, Size: 0x00009a94, Max: 0x00009a94, ABSOLUTE, UNINIT)

    Base Addr    Size         Type   Attr      Idx    E Section Name        Object

    0x60030000   0x00009a94   Data   RO          214    .ARM.__at_0x60030000  rd_wr_flash.o



  Load Region LR$$.ARM.__AT_0x60070000 (Base: 0x60070000, Size: 0x0000dca8, Max: 0x0000dca8, ABSOLUTE)

    Execution Region ER$$.ARM.__AT_0x60070000 (Base: 0x60070000, Size: 0x0000dca8, Max: 0x0000dca8, ABSOLUTE, UNINIT)

    Base Addr    Size         Type   Attr      Idx    E Section Name        Object

    0x60070000   0x0000dca8   Data   RO          370    .ARM.__AT_0x60070000  bsp.o


==============================================================================

Image component sizes


      Code (inc. data)   RO Data    RW Data    ZI Data      Debug   Object Name

     13556       1302        143          2         34      29911   aud_driver.o
       320          4          0          0          0       7153   audio.o
       596         52      56740          0          0      30675   bsp.o
      1452        122          0         22         44       5453   fun_main.o
      2476         58          0         52          0      11446   i2c_software_master.o
      1576         22          0          4          0      31758   i2s4.o
       360         34          0         12          0       1452   key.o
      1108         26          0          8          0       7883   led.o
      2568        274          0        286      78004      76576   main.o
       664         34          0         10         32       4225   motor.o
         0          0      39572          0          0          0   rd_wr_flash.o
      2360        366          0        180          0       6162   snx_audio_agc.o
         0          0         72          0          0        943   sonix_load_table.o
        80         26        292          0      40960        900   startup.o
      1588         64        420          8         48      38466   uart.o

    ----------------------------------------------------------------------
     29116       2384      97288        592     119124     253003   Object Totals
       410          0         48          0          0          0   (incl. Generated)
         2          0          1          8          2          0   (incl. Padding)

    ----------------------------------------------------------------------

      Code (inc. data)   RO Data    RW Data    ZI Data      Debug   Library Member Name

         8          0          0          0          0         68   __main.o
       392          4         17          0          0         92   __printf_flags_ss_wp.o
        14          0          0          0          0         68   __printf_wp.o
         0          0          0          0          0          0   __rtentry.o
        12          0          0          0          0          0   __rtentry2.o
         6          0          0          0          0          0   __rtentry4.o
        52          8          0          0          0          0   __scatter.o
        26          0          0          0          0          0   __scatter_copy.o
        28          0          0          0          0          0   __scatter_zi.o
         6          0          0          0          0          0   _printf_a.o
         6          0          0          0          0          0   _printf_c.o
        44          0          0          0          0        108   _printf_char.o
        48          6          0          0          0         96   _printf_char_common.o
        40          0          0          0          0         68   _printf_charcount.o
         6          0          0          0          0          0   _printf_d.o
       120         16          0          0          0         92   _printf_dec.o
         6          0          0          0          0          0   _printf_e.o
         6          0          0          0          0          0   _printf_f.o
      1050          0          0          0          0        216   _printf_fp_dec.o
       764          8         38          0          0        100   _printf_fp_hex.o
       128         16          0          0          0         84   _printf_fp_infnan.o
         6          0          0          0          0          0   _printf_g.o
       148          4         40          0          0        160   _printf_hex_int_ll_ptr.o
         6          0          0          0          0          0   _printf_i.o
       178          0          0          0          0         88   _printf_intcommon.o
        10          0          0          0          0          0   _printf_l.o
         6          0          0          0          0          0   _printf_lc.o
        10          0          0          0          0          0   _printf_ll.o
         6          0          0          0          0          0   _printf_lld.o
         6          0          0          0          0          0   _printf_lli.o
         6          0          0          0          0          0   _printf_llo.o
         6          0          0          0          0          0   _printf_llu.o
         6          0          0          0          0          0   _printf_llx.o
       124         16          0          0          0         92   _printf_longlong_dec.o
         6          0          0          0          0          0   _printf_ls.o
         6          0          0          0          0          0   _printf_n.o
         6          0          0          0          0          0   _printf_o.o
       112          8          0          0          0        124   _printf_oct_int_ll.o
         6          0          0          0          0          0   _printf_p.o
        78          0          0          0          0        108   _printf_pad.o
         0          0          0          0          0          0   _printf_percent.o
         4          0          0          0          0          0   _printf_percent_end.o
         6          0          0          0          0          0   _printf_s.o
        82          0          0          0          0         80   _printf_str.o
        36          0          0          0          0         84   _printf_truncate.o
         6          0          0          0          0          0   _printf_u.o
        44          0          0          0          0        108   _printf_wchar.o
       188          6          8          0          0         92   _printf_wctomb.o
         6          0          0          0          0          0   _printf_x.o
        16          0          0          0          0         68   _snputc.o
        10          0          0          0          0         68   _sputc.o
        64          0          0          0          0         92   _wcrtomb.o
       220          4        148          0          0         96   bigflt0.o
      1910        128          0          0          0        672   btod.o
        10          0          0          0          0         68   defsig_exit.o
        50          0          0          0          0         88   defsig_general.o
        80         58          0          0          0         76   defsig_rtmem_inner.o
        14          0          0          0          0         80   defsig_rtmem_outer.o
        18          0          0          0          0         80   exit.o
        94          0          0          0          0         80   h1_alloc.o
        52          0          0          0          0         68   h1_extend.o
        78          0          0          0          0         80   h1_free.o
        14          0          0          0          0         84   h1_init.o
         6          0          0          0          0        152   heapauxi.o
         4          0          0          0          0        136   hguard.o
         0          0          0          0          0          0   indicate_semi.o
       138          0          0          0          0        168   init_alloc.o
        44         10        272          0          0         76   lc_ctype_c.o
        44         10         28          0          0         76   lc_numeric_c.o
         2          0          0          0          0          0   libinit.o
        38          0          0          0          0          0   libinit2.o
         2          0          0          0          0          0   libshutdown.o
         2          0          0          0          0          0   libshutdown2.o
         8          4          0          0         96         68   libspace.o
       138          0          0          0          0         80   lludiv10.o
         0          0          0          0          0          0   maybetermalloc1.o
        16          4          0          0          0         76   rt_ctype_table.o
         8          4          0          0          0         68   rt_heap_descriptor_intlibspace.o
         8          4          0          0          0         68   rt_locale_intlibspace.o
        68          0          0          0          0         68   rt_memclr.o
        78          0          0          0          0         80   rt_memclr_w.o
       100          0          0          0          0         80   rt_memcpy_w.o
         2          0          0          0          0          0   rtexit.o
        10          0          0          0          0          0   rtexit2.o
       128          0          0          0          0         68   strcmpv7m.o
        12          4          0          0          0         68   sys_exit.o
        74          0          0          0          0         80   sys_stackheap_outer.o
        14          0          0          0          0         76   sys_wrch.o
         2          0          0          0          0         68   use_no_semi.o
        52          4          0          0          0         80   vsnprintf.o
        24          0          0          0          0         68   dcmpi.o
       688        140          0          0          0        208   ddiv.o
        94          4          0          0          0         92   dfix.o
        46          0          0          0          0         68   dflt_clz.o
       120          4          0          0          0         92   dleqf.o
       340         12          0          0          0        104   dmul.o
       156          4          0          0          0         92   dnaninf.o
        12          0          0          0          0         68   dretinf.o
        86          4          0          0          0         84   f2d.o
        48          0          0          0          0         68   fflt_clz.o
       140          4          0          0          0         84   fnaninf.o
         4          0          0          0          0         68   printf1.o
         4          0          0          0          0         68   printf2.o
         0          0          0          0          0          0   usenofp.o
       282          0          0          0          0        248   BsrAli.o
       180          6        644          0          0         96   BsrAna.o
       428          6       1028          0          0        104   BsrAnn.o
        56          4       2048          0          0         68   BsrBen.o
       710          0          0          0          0        652   BsrDon.o
      1024          6        100          0          0        528   BsrEli.o
      1310         24          0          0          0        348   BsrEva.o
      2818         16       2324          0          0       1372   BsrGo.o
       406          4        512          0          0        352   BsrGuy.o
      5016         56          0          0          0       1388   BsrJay.o
      3324         18          0          0          0       1272   BsrJim.o
       406          0          0          0          0        320   BsrJoe.o
      2308         12          9          0          0        916   BsrJoy.o
      2538          4          0          0          0       1172   BsrKai.o
      1060         70          0          0          0        764   CSpotterSDKApi.o
        40          0          0          0          0         68   fpclassify.o
       800          0          0          0          0       8968   codec.o
      2008         72          0          0         20      43904   gpio.o
      2432         26          0          4          0      44043   i2c.o
      1828         68          0          0          0      42867   i2s.o
      1336         74         24          4          0      13140   idma.o
       224          6          0          0          0       5319   sar_adc.o
      1380         14          0          0          0      12173   spifc.o
      1424         48          0          0          0      39544   timer_pwm.o
       424         28          0         12        128      35241   log_util.o

    ----------------------------------------------------------------------
     43056       1060       7244         20        248     261295   Library Totals
        38          0          4          0          4          0   (incl. Padding)

    ----------------------------------------------------------------------

      Code (inc. data)   RO Data    RW Data    ZI Data      Debug   Library Name

      7494        326        551          0         96       5264   c_w.l
      1762        172          0          0          0       1164   fz_ws.l
     21866        226       6665          0          0       9600   libCSpotterSDK_16k_24d_A_SNC7312_arm-cm3_V6.4.5_b20180726.lib
        40          0          0          0          0         68   m_ws.l
       800          0          0          0          0       8968   snc7320_codec.lib
      2008         72          0          0         20      43904   snc7320_gpio.lib
      2432         26          0          4          0      44043   snc7320_i2c.lib
      1828         68          0          0          0      42867   snc7320_i2s.lib
      1336         74         24          4          0      13140   snc7320_idma.lib
       224          6          0          0          0       5319   snc7320_saradc.lib
      1380         14          0          0          0      12173   snc7320_spifc.lib
      1424         48          0          0          0      39544   snc7320_timer_pwm.lib
       424         28          0         12        128      35241   snc7320_util.lib

    ----------------------------------------------------------------------
     43056       1060       7244         20        248     261295   Library Totals

    ----------------------------------------------------------------------

==============================================================================


      Code (inc. data)   RO Data    RW Data    ZI Data      Debug   

     72172       3444     104532        612     119372     502490   Grand Totals
     72172       3444     104532        612     119372     502490   ELF Image Totals
     72172       3444     104532        612          0          0   ROM Totals

==============================================================================

    Total RO  Size (Code + RO Data)               176704 ( 172.56kB)
    Total RW  Size (RW Data + ZI Data)            119984 ( 117.17kB)
    Total ROM Size (Code + RO Data + RW Data)     177316 ( 173.16kB)

==============================================================================

